(i__main__
LoadStruct
p0
(dp1
S'playerpos'
p2
(ivec
Vec3
p3
(dp4
S'y'
p5
F3.965654073606157
sS'x'
p6
F15.013685648025948
sS'z'
p7
F3.7468451991953651
sbsS'playeraimyaw'
p8
F-2.0490000000004982
sS'playeraimpitch'
p9
F0.43699999999999906
sS'space'
p10
(dp11
(I6
I22
I-7
tp12
I17
s(I3
I0
I3
tp13
I1
s(I-4
I11
I0
tp14
I1
s(I1
I1
I-3
tp15
I2
s(I-2
I11
I2
tp16
I1
s(I-1
I8
I-1
tp17
I17
s(I1
I-2
I-1
tp18
I1
s(I0
I2
I1
tp19
I2
s(I-1
I3
I2
tp20
I2
s(I3
I4
I-12
tp21
I3
s(I5
I15
I-7
tp22
I13
s(I3
I-6
I-17
tp23
I2
s(I7
I20
I-5
tp24
I17
s(I2
I-4
I-5
tp25
I3
s(I3
I-2
I-3
tp26
I1
s(I0
I-3
I0
tp27
I1
s(I3
I1
I4
tp28
I2
s(I1
I-8
I-3
tp29
I2
s(I3
I15
I-6
tp30
I13
s(I3
I9
I-13
tp31
I1
s(I9
I15
I-8
tp32
I13
s(I1
I2
I0
tp33
I3
s(I-16
I26
I-1
tp34
I5
s(I9
I17
I-7
tp35
I26
s(I3
I-1
I-11
tp36
I3
s(I-3
I1
I4
tp37
I2
s(I3
I16
I-9
tp38
I27
s(I3
I10
I-10
tp39
I2
s(I-1
I10
I-2
tp40
I3
s(I-3
I-1
I0
tp41
I1
s(I3
I6
I-7
tp42
I1
s(I-2
I4
I1
tp43
I3
s(I9
I20
I-10
tp44
I17
s(I2
I-4
I-3
tp45
I3
s(I4
I1
I1
tp46
I2
s(I-3
I1
I1
tp47
I1
s(I-3
I4
I2
tp48
I3
s(I-5
I0
I-1
tp49
I1
s(I3
I0
I1
tp50
I1
s(I0
I4
I2
tp51
I3
s(I0
I0
I-2
tp52
I1
s(I-1
I1
I1
tp53
I1
s(I1
I-7
I-5
tp54
I3
s(I3
I2
I-13
tp55
I3
s(I1
I0
I-1
tp56
I1
s(I3
I9
I-16
tp57
I2
s(I4
I-4
I-7
tp58
I3
s(I0
I1
I-3
tp59
I2
s(I2
I-8
I-7
tp60
I2
s(I0
I1
I0
tp61
I2
s(I3
I-6
I-15
tp62
I1
s(I-1
I-1
I-1
tp63
I1
s(I1
I-1
I-3
tp64
I1
s(I3
I7
I-11
tp65
I1
s(I4
I21
I-9
tp66
I17
s(I-4
I12
I-1
tp67
I2
s(I4
I15
I-3
tp68
I13
s(I4
I-8
I-4
tp69
I2
s(I3
I4
I1
tp70
I20
s(I4
I16
I-11
tp71
I27
s(I0
I-1
I-3
tp72
I1
s(I3
I-2
I-22
tp73
I1
s(I-1
I14
I-1
tp74
I3
s(I2
I-8
I-4
tp75
I2
s(I3
I19
I-10
tp76
I27
s(I3
I15
I-8
tp77
I13
s(I9
I16
I-5
tp78
I27
s(I-2
I7
I0
tp79
I17
s(I-3
I0
I4
tp80
I1
s(I1
I2
I-3
tp81
I3
s(I1
I-1
I1
tp82
I1
s(I3
I1
I-3
tp83
I2
s(I-2
I3
I2
tp84
I2
s(I-4
I3
I1
tp85
I3
s(I5
I22
I-9
tp86
I17
s(I3
I10
I-12
tp87
I1
s(I3
I-2
I-1
tp88
I1
s(I6
I18
I-5
tp89
I26
s(I-1
I0
I2
tp90
I1
s(I1
I-8
I-8
tp91
I2
s(I3
I10
I-7
tp92
I1
s(I3
I-5
I-17
tp93
I2
s(I22
I0
I2
tp94
I1
s(I0
I-1
I0
tp95
I1
s(I-5
I2
I2
tp96
I2
s(I5
I19
I-11
tp97
I27
s(I1
I1
I0
tp98
I2
s(I3
I6
I-10
tp99
I2
s(I4
I-4
I-8
tp100
I3
s(I1
I-5
I-4
tp101
I3
s(I2
I2
I1
tp102
I2
s(I0
I1
I-2
tp103
I2
s(I-16
I42
I-1
tp104
I5
s(I4
I19
I-5
tp105
I27
s(I-5
I1
I0
tp106
I1
s(I3
I20
I-6
tp107
I17
s(I3
I-3
I-1
tp108
I1
s(I4
I-2
I1
tp109
I3
s(I4
I2
I3
tp110
I2
s(I-16
I35
I-1
tp111
I5
s(I-1
I0
I4
tp112
I1
s(I-3
I3
I2
tp113
I2
s(I3
I18
I-11
tp114
I26
s(I8
I21
I-8
tp115
I17
s(I3
I8
I-9
tp116
I2
s(I3
I0
I4
tp117
I1
s(I2
I-8
I-8
tp118
I2
s(I-4
I11
I1
tp119
I1
s(I1
I-3
I0
tp120
I1
s(I-2
I6
I0
tp121
I17
s(I6
I15
I-4
tp122
I13
s(I-2
I-1
I3
tp123
I1
s(I0
I2
I0
tp124
I3
s(I5
I21
I-10
tp125
I17
s(I-1
I3
I3
tp126
I3
s(I-4
I3
I4
tp127
I3
s(I3
I4
I-11
tp128
I3
s(I5
I15
I-8
tp129
I13
s(I3
I-6
I-20
tp130
I1
s(I3
I-4
I-4
tp131
I3
s(I2
I-4
I-6
tp132
I3
s(I1
I0
I0
tp133
I1
s(I3
I1
I3
tp134
I1
s(I-5
I3
I1
tp135
I3
s(I-4
I0
I2
tp136
I1
s(I2
I-3
I0
tp137
I1
s(I4
I-5
I-3
tp138
I3
s(I3
I3
I-5
tp139
I1
s(I-2
I7
I1
tp140
I17
s(I3
I16
I-8
tp141
I27
s(I-6
I3
I2
tp142
I3
s(I6
I16
I-3
tp143
I27
s(I-1
I2
I4
tp144
I2
s(I6
I15
I-5
tp145
I13
s(I0
I-1
I2
tp146
I1
s(I-1
I4
I0
tp147
I16
s(I22
I2
I4
tp148
I14
s(I4
I-3
I0
tp149
I6
s(I4
I1
I2
tp150
I1
s(I-4
I0
I3
tp151
I1
s(I3
I-4
I-6
tp152
I3
s(I-3
I4
I3
tp153
I3
s(I2
I3
I-3
tp154
I5
s(I1
I-7
I-6
tp155
I3
s(I3
I2
I-16
tp156
I3
s(I1
I-2
I1
tp157
I1
s(I9
I15
I-9
tp158
I13
s(I3
I-2
I-11
tp159
I2
s(I0
I1
I-1
tp160
I2
s(I-1
I8
I1
tp161
I17
s(I3
I0
I2
tp162
I1
s(I0
I1
I1
tp163
I1
s(I3
I-7
I-16
tp164
I1
s(I6
I16
I-11
tp165
I27
s(I3
I3
I-8
tp166
I3
s(I1
I-1
I-1
tp167
I1
s(I-16
I24
I-1
tp168
I5
s(I4
I21
I-8
tp169
I17
s(I-16
I23
I-1
tp170
I5
s(I0
I-2
I-3
tp171
I1
s(I4
I-1
I-3
tp172
I9
s(I1
I-2
I-2
tp173
I1
s(I-5
I0
I0
tp174
I1
s(I1
I-3
I-1
tp175
I1
s(I9
I18
I-10
tp176
I26
s(I3
I6
I-12
tp177
I1
s(I4
I3
I1
tp178
I3
s(I3
I-1
I-21
tp179
I1
s(I3
I4
I2
tp180
I3
s(I3
I19
I-7
tp181
I27
s(I9
I19
I-7
tp182
I27
s(I1
I2
I1
tp183
I2
s(I1
I-3
I-3
tp184
I1
s(I3
I3
I4
tp185
I3
s(I0
I2
I-2
tp186
I3
s(I3
I-7
I-8
tp187
I3
s(I1
I2
I-2
tp188
I3
s(I4
I-8
I-7
tp189
I2
s(I5
I15
I-9
tp190
I13
s(I-5
I3
I-1
tp191
I3
s(I0
I-3
I-1
tp192
I1
s(I5
I22
I-8
tp193
I17
s(I3
I10
I-11
tp194
I1
s(I3
I-1
I-2
tp195
I1
s(I1
I-8
I-7
tp196
I2
s(I3
I-5
I-18
tp197
I2
s(I3
I-4
I-8
tp198
I3
s(I2
I1
I2
tp199
I1
s(I1
I0
I4
tp200
I1
s(I3
I8
I-16
tp201
I2
s(I-5
I3
I2
tp202
I3
s(I0
I-1
I3
tp203
I1
s(I-1
I2
I3
tp204
I2
s(I-5
I2
I3
tp205
I2
s(I2
I-3
I-2
tp206
I1
s(I-1
I0
I1
tp207
I1
s(I1
I1
I3
tp208
I1
s(I3
I6
I-9
tp209
I2
s(I-4
I11
I-1
tp210
I1
s(I4
I-6
I-3
tp211
I3
s(I2
I-6
I-8
tp212
I3
s(I3
I6
I-8
tp213
I2
s(I3
I20
I-5
tp214
I17
s(I-1
I5
I0
tp215
I3
s(I4
I4
I2
tp216
I3
s(I3
I1
I-12
tp217
I3
s(I-2
I7
I-1
tp218
I17
s(I-16
I21
I-1
tp219
I5
s(I3
I11
I-7
tp220
I2
s(I4
I2
I2
tp221
I1
s(I3
I0
I0
tp222
I1
s(I1
I-4
I-6
tp223
I3
s(I9
I20
I-6
tp224
I17
s(I-3
I3
I1
tp225
I2
s(I3
I15
I-5
tp226
I13
s(I3
I18
I-6
tp227
I26
s(I4
I15
I-11
tp228
I13
s(I8
I21
I-7
tp229
I17
s(I-16
I18
I-1
tp230
I5
s(I-2
I-1
I-2
tp231
I1
s(I1
I4
I2
tp232
I3
s(I3
I3
I-14
tp233
I3
s(I3
I-1
I-3
tp234
I1
s(I3
I-7
I-17
tp235
I2
s(I8
I15
I-6
tp236
I13
s(I6
I15
I-3
tp237
I13
s(I-5
I2
I-2
tp238
I2
s(I0
I2
I3
tp239
I2
s(I-2
I14
I-1
tp240
I3
s(I-7
I3
I2
tp241
I3
s(I-2
I3
I4
tp242
I3
s(I3
I3
I-4
tp243
I1
s(I3
I4
I-10
tp244
I3
s(I3
I-6
I-19
tp245
I2
s(I3
I-3
I-11
tp246
I2
s(I2
I0
I1
tp247
I1
s(I3
I-5
I-19
tp248
I2
s(I4
I-2
I-3
tp249
I10
s(I3
I1
I2
tp250
I1
s(I-1
I7
I1
tp251
I17
s(I-5
I3
I0
tp252
I3
s(I1
I-5
I-3
tp253
I3
s(I6
I22
I-9
tp254
I17
s(I-4
I0
I1
tp255
I1
s(I3
I9
I-10
tp256
I2
s(I4
I15
I-7
tp257
I13
s(I-16
I33
I-1
tp258
I5
s(I3
I-2
I-13
tp259
I2
s(I3
I16
I-7
tp260
I27
s(I6
I16
I-4
tp261
I27
s(I-2
I2
I3
tp262
I2
s(I-2
I2
I1
tp263
I1
s(I-3
I3
I0
tp264
I3
s(I3
I2
I4
tp265
I2
s(I22
I2
I3
tp266
I23
s(I3
I17
I-10
tp267
I26
s(I4
I1
I3
tp268
I1
s(I-16
I36
I-1
tp269
I5
s(I3
I-2
I0
tp270
I1
s(I-5
I1
I-2
tp271
I2
s(I1
I2
I-1
tp272
I3
s(I4
I-7
I-8
tp273
I3
s(I-2
I1
I1
tp274
I1
s(I7
I20
I-11
tp275
I17
s(I6
I23
I-8
tp276
I17
s(I0
I4
I0
tp277
I3
s(I-1
I-2
I-2
tp278
I1
s(I-4
I12
I1
tp279
I2
s(I1
I-7
I-3
tp280
I3
s(I-1
I1
I2
tp281
I1
s(I-15
I43
I-1
tp282
I24
s(I1
I-1
I2
tp283
I1
s(I2
I-3
I-3
tp284
I1
s(I-1
I8
I-2
tp285
I3
s(I0
I1
I2
tp286
I1
s(I2
I-1
I0
tp287
I1
s(I1
I0
I1
tp288
I1
s(I4
I21
I-7
tp289
I17
s(I-5
I3
I-2
tp290
I3
s(I3
I-4
I-14
tp291
I1
s(I1
I-2
I0
tp292
I1
s(I2
I-3
I-1
tp293
I1
s(I3
I-1
I-1
tp294
I1
s(I2
I-8
I-5
tp295
I2
s(I3
I10
I-14
tp296
I2
s(I0
I8
I0
tp297
I17
s(I6
I19
I-11
tp298
I27
s(I7
I18
I-11
tp299
I26
s(I-5
I0
I1
tp300
I1
s(I-2
I-1
I0
tp301
I1
s(I3
I-6
I-3
tp302
I3
s(I2
I2
I-3
tp303
I3
s(I3
I-8
I-5
tp304
I2
s(I2
I4
I2
tp305
I3
s(I3
I19
I-8
tp306
I27
s(I3
I-8
I-8
tp307
I2
s(I9
I19
I-8
tp308
I27
s(I-1
I13
I-2
tp309
I3
s(I4
I0
I4
tp310
I1
s(I2
I-4
I-8
tp311
I3
s(I5
I15
I-10
tp312
I13
s(I-2
I-2
I0
tp313
I1
s(I0
I3
I1
tp314
I3
s(I5
I22
I-7
tp315
I17
s(I-17
I42
I-1
tp316
I26
s(I1
I1
I-2
tp317
I2
s(I-2
I0
I4
tp318
I1
s(I-1
I0
I-2
tp319
I1
s(I3
I5
I-16
tp320
I3
s(I3
I-6
I-11
tp321
I2
s(I4
I-5
I-8
tp322
I3
s(I2
I1
I3
tp323
I1
s(I3
I8
I-15
tp324
I2
s(I0
I-2
I2
tp325
I1
s(I-5
I2
I0
tp326
I2
s(I5
I19
I-5
tp327
I27
s(I0
I2
I-1
tp328
I3
s(I1
I-1
I0
tp329
I1
s(I1
I-3
I-2
tp330
I1
s(I6
I15
I-10
tp331
I13
s(I3
I-4
I-21
tp332
I1
s(I-3
I0
I2
tp333
I1
s(I21
I0
I2
tp334
I1
s(I3
I-1
I1
tp335
I1
s(I5
I15
I-2
tp336
I13
s(I3
I-6
I-22
tp337
I1
s(I9
I17
I-10
tp338
I26
s(I-4
I2
I4
tp339
I2
s(I1
I0
I3
tp340
I1
s(I9
I20
I-5
tp341
I17
s(I3
I-3
I0
tp342
I1
s(I-5
I1
I-1
tp343
I2
s(I7
I15
I-7
tp344
I13
s(I8
I21
I-6
tp345
I17
s(I-16
I11
I-1
tp346
I5
s(I-16
I42
I0
tp347
I26
s(I0
I-2
I-1
tp348
I1
s(I-2
I-1
I-3
tp349
I1
s(I1
I-6
I-3
tp350
I3
s(I3
I3
I-11
tp351
I3
s(I3
I-7
I-18
tp352
I2
s(I-3
I12
I2
tp353
I2
s(I8
I19
I-11
tp354
I27
s(I9
I19
I-11
tp355
I27
s(I8
I15
I-5
tp356
I13
s(I6
I15
I-2
tp357
I13
s(I7
I22
I-9
tp358
I17
s(I6
I21
I-6
tp359
I17
s(I-16
I14
I-1
tp360
I5
s(I4
I18
I-11
tp361
I26
s(I-4
I3
I2
tp362
I2
s(I-3
I13
I0
tp363
I2
s(I2
I0
I0
tp364
I1
s(I22
I0
I4
tp365
I9
s(I3
I1
I1
tp366
I1
s(I-5
I3
I3
tp367
I3
s(I3
I-5
I-15
tp368
I1
s(I-2
I2
I4
tp369
I2
s(I1
I-4
I-3
tp370
I3
s(I3
I-1
I-16
tp371
I3
s(I2
I-5
I-8
tp372
I3
s(I3
I16
I-6
tp373
I27
s(I2
I-2
I-1
tp374
I22
s(I-1
I6
I0
tp375
I16
s(I0
I2
I2
tp376
I1
s(I0
I-1
I-2
tp377
I1
s(I-1
I1
I-1
tp378
I2
s(I-1
I4
I2
tp379
I3
s(I22
I2
I2
tp380
I23
s(I-4
I5
I2
tp381
I3
s(I3
I10
I-5
tp382
I2
s(I-2
I0
I-3
tp383
I1
s(I-3
I4
I1
tp384
I3
s(I6
I15
I-11
tp385
I13
s(I-4
I12
I0
tp386
I2
s(I-2
I1
I4
tp387
I2
s(I1
I-7
I-4
tp388
I3
s(I9
I18
I-11
tp389
I26
s(I-3
I13
I1
tp390
I3
s(I1
I0
I-3
tp391
I1
s(I9
I15
I-11
tp392
I13
s(I2
I2
I3
tp393
I2
s(I0
I1
I3
tp394
I1
s(I3
I-7
I-3
tp395
I3
s(I4
I0
I3
tp396
I1
s(I-4
I2
I1
tp397
I2
s(I4
I-8
I-6
tp398
I2
s(I4
I21
I-6
tp399
I17
s(I3
I20
I-11
tp400
I17
s(I-1
I-2
I0
tp401
I1
s(I2
I3
I1
tp402
I3
s(I0
I7
I0
tp403
I17
s(I3
I10
I-13
tp404
I1
s(I-5
I0
I2
tp405
I1
s(I4
I-3
I-2
tp406
I6
s(I-16
I34
I-1
tp407
I5
s(I3
I2
I-1
tp408
I3
s(I3
I2
I-2
tp409
I3
s(I3
I19
I-5
tp410
I27
s(I0
I-1
I-1
tp411
I1
s(I3
I15
I-11
tp412
I13
s(I4
I-5
I-4
tp413
I3
s(I0
I6
I0
tp414
I17
s(I-16
I43
I0
tp415
I24
s(I3
I1
I-10
tp416
I3
s(I3
I0
I-11
tp417
I3
s(I-3
I11
I2
tp418
I1
s(I-1
I-2
I2
tp419
I1
s(I5
I15
I-11
tp420
I13
s(I1
I1
I2
tp421
I1
s(I1
I-4
I-4
tp422
I3
s(I4
I2
I4
tp423
I2
s(I1
I2
I3
tp424
I2
s(I3
I5
I-9
tp425
I3
s(I9
I19
I-6
tp426
I27
s(I-3
I14
I0
tp427
I3
s(I-1
I3
I-1
tp428
I18
s(I-2
I2
I-2
tp429
I3
s(I3
I-3
I-3
tp430
I1
s(I1
I-6
I-4
tp431
I3
s(I-2
I3
I1
tp432
I2
s(I-5
I2
I1
tp433
I2
s(I-2
I8
I0
tp434
I17
s(I4
I-7
I-4
tp435
I3
s(I-1
I1
I-3
tp436
I2
s(I-4
I1
I0
tp437
I2
s(I3
I6
I-11
tp438
I1
s(I1
I-5
I-7
tp439
I3
s(I-1
I6
I-1
tp440
I17
s(I-4
I1
I-2
tp441
I2
s(I-5
I11
I1
tp442
I1
s(I21
I0
I3
tp443
I9
s(I4
I-2
I0
tp444
I4
s(I5
I15
I-3
tp445
I13
s(I5
I16
I-2
tp446
I27
s(I3
I0
I-3
tp447
I1
s(I3
I11
I-5
tp448
I2
s(I4
I-2
I-2
tp449
I9
s(I9
I20
I-8
tp450
I17
s(I-1
I7
I0
tp451
I17
s(I3
I-5
I-8
tp452
I3
s(I3
I-4
I-12
tp453
I2
s(I7
I15
I-11
tp454
I13
s(I-4
I13
I0
tp455
I3
s(I-2
I-1
I2
tp456
I1
s(I9
I20
I-9
tp457
I17
s(I3
I-6
I-13
tp458
I1
s(I3
I-7
I-19
tp459
I2
s(I8
I15
I-8
tp460
I13
s(I-4
I3
I-2
tp461
I3
s(I3
I-4
I-7
tp462
I3
s(I-1
I2
I2
tp463
I1
s(I0
I0
I-1
tp464
I1
s(I3
I2
I2
tp465
I1
s(I-16
I29
I-1
tp466
I5
s(I-4
I3
I3
tp467
I3
s(I-2
I-1
I1
tp468
I1
s(I-4
I0
I-1
tp469
I1
s(I-2
I1
I0
tp470
I2
s(I-3
I0
I1
tp471
I1
s(I2
I0
I3
tp472
I1
s(I1
I-7
I-8
tp473
I3
s(I7
I15
I-5
tp474
I13
s(I-16
I31
I-1
tp475
I5
s(I3
I1
I0
tp476
I2
s(I2
I-1
I-3
tp477
I1
s(I7
I21
I-6
tp478
I17
s(I-16
I16
I-1
tp479
I5
s(I-4
I-1
I1
tp480
I1
s(I3
I-4
I-5
tp481
I3
s(I1
I2
I4
tp482
I2
s(I4
I15
I-6
tp483
I13
s(I4
I-4
I-3
tp484
I3
s(I-3
I1
I0
tp485
I2
s(I3
I-1
I0
tp486
I1
s(I3
I16
I-5
tp487
I27
s(I3
I-7
I-11
tp488
I2
s(I6
I16
I-2
tp489
I27
s(I2
I-1
I1
tp490
I1
s(I-1
I-1
I2
tp491
I1
s(I9
I16
I-6
tp492
I27
s(I-4
I2
I-1
tp493
I3
s(I-1
I3
I0
tp494
I16
s(I-3
I2
I1
tp495
I1
s(I4
I-2
I-1
tp496
I4
s(I3
I17
I-11
tp497
I26
s(I-1
I1
I-2
tp498
I2
s(I3
I4
I-8
tp499
I3
s(I-16
I12
I-1
tp500
I5
s(I1
I3
I3
tp501
I3
s(I-2
I-1
I-1
tp502
I1
s(I4
I3
I4
tp503
I3
s(I2
I3
I-5
tp504
I1
s(I3
I2
I-9
tp505
I3
s(I0
I3
I3
tp506
I3
s(I3
I15
I-4
tp507
I13
s(I8
I20
I-5
tp508
I17
s(I4
I-8
I-8
tp509
I2
s(I3
I3
I1
tp510
I3
s(I7
I17
I-11
tp511
I26
s(I0
I1
I4
tp512
I2
s(I-1
I9
I0
tp513
I17
s(I4
I0
I2
tp514
I1
s(I-4
I2
I0
tp515
I3
s(I3
I20
I-10
tp516
I17
s(I2
I3
I2
tp517
I2
s(I3
I10
I-16
tp518
I2
s(I-2
I0
I2
tp519
I1
s(I1
I-4
I-7
tp520
I3
s(I-5
I0
I3
tp521
I1
s(I4
I15
I-8
tp522
I13
s(I9
I18
I-7
tp523
I26
s(I-4
I3
I-1
tp524
I19
s(I3
I8
I-5
tp525
I2
s(I3
I16
I-2
tp526
I27
s(I-1
I-2
I1
tp527
I1
s(I0
I0
I3
tp528
I1
s(I3
I19
I-6
tp529
I27
s(I3
I-8
I-6
tp530
I2
s(I9
I19
I-10
tp531
I27
s(I-16
I20
I-1
tp532
I5
s(I1
I3
I4
tp533
I3
s(I-1
I6
I1
tp534
I17
s(I-3
I11
I1
tp535
I1
s(I-2
I-2
I1
tp536
I1
s(I-3
I1
I-1
tp537
I2
s(I3
I7
I-7
tp538
I1
s(I-5
I1
I4
tp539
I2
s(I3
I0
I-2
tp540
I1
s(I6
I20
I-5
tp541
I17
s(I7
I22
I-7
tp542
I17
s(I7
I15
I-6
tp543
I13
s(I-3
I13
I-1
tp544
I3
s(I1
I-8
I-4
tp545
I2
s(I-1
I1
I4
tp546
I2
s(I2
I1
I1
tp547
I1
s(I3
I-2
I-2
tp548
I1
s(I-3
I0
I-2
tp549
I1
s(I4
I-7
I-3
tp550
I3
s(I9
I16
I-7
tp551
I27
s(I-4
I1
I1
tp552
I1
s(I3
I6
I-14
tp553
I2
s(I0
I-2
I0
tp554
I1
s(I-16
I32
I-1
tp555
I5
s(I1
I-5
I-8
tp556
I3
s(I-3
I-1
I-1
tp557
I1
s(I-16
I42
I-2
tp558
I26
s(I-5
I11
I0
tp559
I1
s(I3
I15
I-3
tp560
I13
s(I5
I15
I-4
tp561
I13
s(I-1
I3
I4
tp562
I3
s(I3
I11
I-6
tp563
I2
s(I22
I1
I4
tp564
I18
s(I-1
I-1
I1
tp565
I1
s(I7
I19
I-5
tp566
I27
s(I3
I18
I-7
tp567
I26
s(I2
I-7
I-3
tp568
I3
s(I2
I1
I-3
tp569
I2
s(I9
I15
I-5
tp570
I13
s(I-4
I13
I1
tp571
I3
s(I3
I2
I-3
tp572
I3
s(I-2
I1
I-2
tp573
I2
s(I-3
I12
I0
tp574
I1
s(I8
I19
I-5
tp575
I27
s(I8
I15
I-7
tp576
I13
s(I6
I15
I-8
tp577
I13
s(I0
I0
I-3
tp578
I1
s(I3
I2
I3
tp579
I2
s(I-2
I0
I-2
tp580
I1
s(I-2
I4
I2
tp581
I3
s(I-5
I4
I1
tp582
I3
s(I3
I17
I-5
tp583
I26
s(I5
I21
I-6
tp584
I17
s(I-4
I3
I0
tp585
I3
s(I-16
I43
I-2
tp586
I24
s(I4
I-6
I-8
tp587
I3
s(I-2
I0
I-1
tp588
I1
s(I-2
I1
I2
tp589
I1
s(I2
I2
I0
tp590
I3
s(I3
I-5
I-13
tp591
I1
s(I4
I-6
I-4
tp592
I3
s(I22
I1
I2
tp593
I21
s(I1
I-4
I-5
tp594
I3
s(I-1
I9
I-2
tp595
I3
s(I4
I-4
I-4
tp596
I3
s(I4
I0
I-2
tp597
I4
s(I-3
I1
I3
tp598
I1
s(I3
I16
I-4
tp599
I27
s(I5
I20
I-5
tp600
I17
s(I-2
I2
I0
tp601
I2
s(I21
I1
I3
tp602
I7
s(I4
I-8
I-5
tp603
I2
s(I3
I6
I-5
tp604
I2
s(I3
I-4
I-11
tp605
I2
s(I-1
I12
I-2
tp606
I3
s(I1
I3
I-3
tp607
I5
s(I4
I1
I4
tp608
I2
s(I4
I20
I-5
tp609
I17
s(I3
I-6
I-8
tp610
I3
s(I3
I2
I0
tp611
I3
s(I-3
I-1
I3
tp612
I1
s(I0
I-2
I-2
tp613
I1
s(I1
I3
I2
tp614
I2
s(I-16
I27
I-1
tp615
I5
s(I-17
I43
I-1
tp616
I24
s(I8
I16
I-11
tp617
I27
s(I3
I-2
I-17
tp618
I2
s(I3
I19
I-11
tp619
I27
s(I0
I7
I-1
tp620
I17
s(I2
I-2
I0
tp621
I1
s(I3
I9
I-5
tp622
I2
s(I3
I3
I0
tp623
I3
s(I-16
I17
I-1
tp624
I5
s(I2
I4
I1
tp625
I21
s(I-4
I4
I3
tp626
I3
s(I-16
I30
I-1
tp627
I5
s(I4
I0
I1
tp628
I1
s(I-4
I2
I3
tp629
I2
s(I3
I7
I-16
tp630
I2
s(I3
I20
I-9
tp631
I17
s(I2
I-2
I-2
tp632
I22
s(I2
I3
I3
tp633
I3
s(I9
I16
I-10
tp634
I27
s(I-3
I0
I-1
tp635
I1
s(I2
I-4
I-4
tp636
I3
s(I1
I2
I2
tp637
I1
s(I2
I0
I-3
tp638
I1
s(I3
I15
I-7
tp639
I13
s(I-5
I0
I4
tp640
I1
s(I3
I-5
I-22
tp641
I1
s(I-2
I2
I-1
tp642
I3
s(I7
I21
I-10
tp643
I17
s(I3
I-3
I-2
tp644
I1
s(I3
I6
I-15
tp645
I2
s(I2
I-2
I-3
tp646
I1
s(I7
I16
I-5
tp647
I27
s(I-3
I2
I2
tp648
I1
s(I0
I0
I2
tp649
I1
s(I-1
I-1
I0
tp650
I1
s(I3
I15
I-9
tp651
I13
s(I-16
I10
I-1
tp652
I5
s(I21
I2
I2
tp653
I22
s(I-4
I13
I-1
tp654
I3
s(I-16
I13
I-1
tp655
I5
s(I-3
I11
I0
tp656
I1
s(I8
I18
I-5
tp657
I26
s(I3
I7
I-8
tp658
I2
s(I-5
I1
I3
tp659
I1
s(I0
I3
I4
tp660
I3
s(I6
I17
I-5
tp661
I26
s(I3
I3
I2
tp662
I2
s(I9
I20
I-11
tp663
I17
s(I3
I18
I-10
tp664
I26
s(I1
I1
I4
tp665
I2
s(I4
I-1
I-2
tp666
I9
s(I3
I8
I-12
tp667
I1
s(I4
I15
I-5
tp668
I13
s(I-3
I-1
I1
tp669
I1
s(I1
I-6
I-8
tp670
I3
s(I8
I17
I-11
tp671
I26
s(I-4
I1
I-1
tp672
I2
s(I-4
I1
I2
tp673
I1
s(I3
I6
I-13
tp674
I1
s(I3
I-2
I1
tp675
I3
s(I-2
I11
I0
tp676
I3
s(I2
I-8
I-3
tp677
I2
s(I-2
I0
I1
tp678
I1
s(I-2
I3
I0
tp679
I3
s(I-3
I14
I-1
tp680
I3
s(I5
I15
I-5
tp681
I13
s(I-1
I1
I3
tp682
I1
s(I9
I17
I-5
tp683
I26
s(I-3
I0
I0
tp684
I1
s(I2
I-4
I-7
tp685
I3
s(I-16
I22
I-1
tp686
I5
s(I-4
I0
I0
tp687
I1
s(I2
I-7
I-8
tp688
I3
s(I9
I15
I-6
tp689
I13
s(I7
I15
I-9
tp690
I13
s(I3
I16
I-11
tp691
I27
s(I-16
I43
I-1
tp692
I5
s(I-3
I12
I1
tp693
I2
s(I8
I15
I-10
tp694
I13
s(I6
I15
I-7
tp695
I13
s(I-3
I2
I-2
tp696
I3
s(I3
I1
I-17
tp697
I3
s(I3
I17
I-6
tp698
I26
s(I-3
I1
I-2
tp699
I2
s(I0
I0
I4
tp700
I1
s(I3
I4
I-14
tp701
I3
s(I5
I0
I2
tp702
I1
s(I3
I-8
I-7
tp703
I2
s(I-2
I1
I3
tp704
I1
s(I1
I-7
I-7
tp705
I3
s(I4
I-8
I-3
tp706
I2
s(I9
I19
I-9
tp707
I27
s(I22
I1
I3
tp708
I7
s(I1
I-4
I-8
tp709
I3
s(I3
I9
I-14
tp710
I2
s(I4
I-4
I-5
tp711
I3
s(I-3
I1
I2
tp712
I1
s(I3
I16
I-3
tp713
I27
s(I-1
I-1
I-2
tp714
I1
s(I21
I1
I2
tp715
I21
s(I3
I3
I-3
tp716
I5
s(I9
I16
I-8
tp717
I27
s(I2
I3
I4
tp718
I3
s(I3
I0
I-17
tp719
I3
s(I1
I3
I-4
tp720
I1
s(I-1
I0
I3
tp721
I1
s(I2
I-6
I-3
tp722
I3
s(I-1
I-2
I-1
tp723
I1
s(I3
I5
I-13
tp724
I3
s(I4
I3
I2
tp725
I2
s(I3
I-2
I-20
tp726
I1
s(I4
I-3
I-1
tp727
I6
s(I3
I15
I-2
tp728
I13
s(I-1
I2
I-1
tp729
I3
s(I5
I20
I-11
tp730
I17
s(I3
I3
I3
tp731
I3
s(I9
I20
I-7
tp732
I17
s(I-4
I4
I2
tp733
I3
s(I4
I19
I-11
tp734
I27
s(I-1
I0
I0
tp735
I1
s(I-4
I2
I2
tp736
I1
s(I-1
I11
I-2
tp737
I3
s(I2
I1
I4
tp738
I2
s(I2
I0
I2
tp739
I1
s(I3
I0
I-1
tp740
I1
s(I-2
I0
I0
tp741
I1
s(I1
I-8
I-6
tp742
I2
s(I4
I15
I-2
tp743
I13
s(I9
I18
I-5
tp744
I26
s(I8
I21
I-10
tp745
I17
s(I9
I18
I-6
tp746
I26
s(I-1
I14
I-2
tp747
I3
s(I-2
I2
I2
tp748
I1
s(I1
I0
I-2
tp749
I1
s(I-3
I2
I3
tp750
I2
s(I0
I0
I1
tp751
I1
s(I2
I-5
I-3
tp752
I3
s(I3
I-8
I-4
tp753
I2
s(I3
I15
I-10
tp754
I13
s(I21
I2
I3
tp755
I24
s(I-16
I25
I-1
tp756
I5
s(I-16
I15
I-1
tp757
I5
s(I21
I1
I4
tp758
I20
s(I3
I-4
I-17
tp759
I2
s(I-1
I-1
I3
tp760
I1
s(I3
I7
I-5
tp761
I2
s(I-5
I1
I2
tp762
I1
s(I3
I20
I-8
tp763
I17
s(I5
I16
I-11
tp764
I27
s(I8
I20
I-11
tp765
I17
s(I6
I20
I-11
tp766
I17
s(I-2
I3
I3
tp767
I3
s(I-16
I19
I-1
tp768
I5
s(I-16
I28
I-1
tp769
I5
s(I4
I2
I1
tp770
I2
s(I9
I15
I-10
tp771
I13
s(I3
I1
I-1
tp772
I2
s(I4
I15
I-10
tp773
I13
s(I-3
I2
I-1
tp774
I3
s(I8
I17
I-5
tp775
I26
s(I-5
I12
I0
tp776
I2
s(I-3
I-1
I2
tp777
I1
s(I1
I-6
I-7
tp778
I3
s(I3
I3
I-15
tp779
I3
s(I-1
I2
I1
tp780
I2
s(I-5
I2
I4
tp781
I3
s(I-2
I0
I3
tp782
I1
s(I-4
I1
I3
tp783
I1
s(I3
I6
I-16
tp784
I2
s(I-1
I-2
I-3
tp785
I1
s(I-5
I2
I-1
tp786
I2
s(I-4
I1
I4
tp787
I2
s(I4
I17
I-11
tp788
I26
s(I-1
I3
I1
tp789
I3
s(I5
I15
I-6
tp790
I13
s(I9
I17
I-6
tp791
I26
s(I-1
I0
I-3
tp792
I1
s(I2
I0
I4
tp793
I1
s(I-1
I-1
I-3
tp794
I1
s(I1
I-2
I-3
tp795
I1
s(I-4
I14
I-1
tp796
I3
s(I7
I19
I-11
tp797
I27
s(I-3
I3
I4
tp798
I3
s(I3
I-5
I-3
tp799
I3
s(I9
I15
I-7
tp800
I13
s(I0
I7
I1
tp801
I17
s(I7
I15
I-10
tp802
I13
s(I0
I-2
I1
tp803
I1
s(I3
I-2
I-12
tp804
I2
s(I3
I4
I-17
tp805
I3
s(I3
I16
I-10
tp806
I27
s(I6
I16
I-5
tp807
I27
s(I8
I15
I-9
tp808
I13
s(I6
I15
I-6
tp809
I13
s(I3
I2
I1
tp810
I2
s(I1
I3
I1
tp811
I3
s(I6
I21
I-10
tp812
I17
s(I3
I17
I-7
tp813
I26
s(I4
I1
I0
tp814
I2
s(I2
I-8
I-6
tp815
I2
s(I5
I0
I3
tp816
I1
s(I4
I0
I-1
tp817
I4
s(I3
I-4
I-3
tp818
I3
s(I2
I1
I0
tp819
I2
s(I3
I18
I-5
tp820
I26
s(I8
I16
I-5
tp821
I27
s(I-1
I1
I0
tp822
I2
s(I2
I-2
I1
tp823
I1
s(I3
I-5
I-11
tp824
I2
s(I-4
I2
I-2
tp825
I2
s(I-4
I0
I4
tp826
I1
s(I4
I-4
I-6
tp827
I3
s(I0
I2
I4
tp828
I2
s(I3
I8
I-14
tp829
I2
s(I3
I-3
I-20
tp830
I1
s(I4
I-1
I0
tp831
I4
s(I3
I-7
I-14
tp832
I1
s(I1
I1
I-1
tp833
I2
s(I1
I0
I2
tp834
I1
s(I9
I16
I-11
tp835
I27
s(I4
I21
I-10
tp836
I17
s(I3
I-3
I-17
tp837
I2
s(I-3
I2
I0
tp838
I2
s(I-2
I1
I-1
tp839
I2
s(I1
I3
I-5
tp840
I1
s(I7
I15
I-8
tp841
I13
s(I4
I20
I-11
tp842
I17
s(I4
I3
I3
tp843
I3
s(I-1
I2
I-2
tp844
I3
s(I-3
I2
I4
tp845
I2
s(I3
I19
I-9
tp846
I27
s(I-16
I44
I-1
tp847
I5
s(I9
I19
I-5
tp848
I27
s(I3
I4
I-15
tp849
I3
s(I-1
I2
I-3
tp850
I3
s(I21
I2
I4
tp851
I14
s(I-1
I8
I0
tp852
I17
s(I3
I0
I-15
tp853
I3
s(I-4
I4
I1
tp854
I3
s(I3
I-7
I-21
tp855
I1
s(I8
I18
I-11
tp856
I26
s(I3
I9
I-6
tp857
I2
s(I-1
I7
I-1
tp858
I17
s(I4
I-1
I-1
tp859
I4
s(I3
I1
I-2
tp860
I2
s(I0
I3
I2
tp861
I2
s(I3
I10
I-9
tp862
I2
s(I2
I2
I4
tp863
I2
s(I1
I-8
I-5
tp864
I2
s(I1
I-1
I-2
tp865
I1
s(I-1
I0
I-1
tp866
I1
s(I-15
I42
I-1
tp867
I26
s(I8
I21
I-9
tp868
I17
s(I22
I0
I3
tp869
I1
s(I3
I10
I-8
tp870
I2
s(I6
I15
I-9
tp871
I13
s(I4
I16
I-2
tp872
I27
s(I0
I2
I-3
tp873
I3
s(I7
I16
I-11
tp874
I27
s(I0
I0
I0
tp875
I1
s(I3
I-8
I-3
tp876
I2
s(I1
I1
I1
tp877
I1
s(I8
I15
I-11
tp878
I13
s(I7
I22
I-8
tp879
I17
s(I2
I2
I2
tp880
I1
s(I6
I19
I-5
tp881
I27
s(I0
I-1
I1
tp882
I1
s(I4
I0
I0
tp883
I1
s(I-5
I1
I1
tp884
I1
s(I3
I20
I-7
tp885
I17
s(I9
I17
I-11
tp886
I26
s(I-3
I0
I3
tp887
I1
s(I4
I0
I-3
tp888
I4
s(I4
I15
I-4
tp889
I13
s(I4
I2
I0
tp890
I3
s(I3
I8
I-7
tp891
I1
s(I-3
I3
I3
tp892
I3
s(I-1
I2
I0
tp893
I3
s(I4
I15
I-9
tp894
I13
s(I9
I16
I-9
tp895
I27
ssb.