(i__main__
LoadStruct
p0
(dp1
S'playerpos'
p2
(ivec
Vec3
p3
(dp4
S'y'
p5
F6.6785133378609913
sS'x'
p6
F-18.868902280728452
sS'z'
p7
F-14.158757341971885
sbsS'playeraimyaw'
p8
F7.3274999999999979
sS'playeraimpitch'
p9
F-0.64250000000000007
sS'space'
p10
(dp11
(I-4
I1
I-2
tp12
I1
s(I-16
I1
I-12
tp13
I1
s(I0
I3
I-6
tp14
I1
s(I-8
I2
I-6
tp15
I1
s(I-12
I1
I-10
tp16
I1
s(I-12
I6
I-1
tp17
I1
s(I-14
I3
I-7
tp18
I1
s(I-5
I1
I-5
tp19
I1
s(I-14
I4
I-13
tp20
I1
s(I-10
I1
I-9
tp21
I1
s(I-10
I3
I-4
tp22
I1
s(I0
I0
I-1
tp23
I1
s(I-7
I5
I2
tp24
I1
s(I-13
I2
I-9
tp25
I1
s(I-4
I6
I-10
tp26
I1
s(I-19
I2
I-15
tp27
I1
s(I-5
I3
I0
tp28
I1
s(I-6
I4
I1
tp29
I1
s(I-4
I2
I-3
tp30
I1
s(I-15
I5
I-6
tp31
I1
s(I-5
I2
I-2
tp32
I1
s(I-6
I2
I-7
tp33
I1
s(I-12
I6
I-2
tp34
I1
s(I-9
I3
I-5
tp35
I1
s(I-7
I1
I-6
tp36
I1
s(I-14
I3
I-13
tp37
I1
s(I-13
I5
I-14
tp38
I1
s(I0
I4
I-7
tp39
I1
s(I-9
I1
I-8
tp40
I1
s(I-6
I1
I-5
tp41
I1
s(I-3
I1
I-3
tp42
I1
s(I-5
I3
I-1
tp43
I1
s(I1
I5
I-8
tp44
I1
s(I-18
I2
I-13
tp45
I1
s(I-15
I2
I-11
tp46
I1
s(I-2
I1
I-4
tp47
I1
s(I-1
I2
I-4
tp48
I1
s(I-13
I1
I-11
tp49
I1
s(I-9
I2
I-6
tp50
I1
s(I-12
I4
I-3
tp51
I1
s(I-15
I4
I-7
tp52
I1
s(I-14
I3
I-8
tp53
I1
s(I-8
I1
I-6
tp54
I1
s(I-1
I0
I0
tp55
I1
s(I-13
I6
I-16
tp56
I1
s(I-16
I2
I-12
tp57
I1
s(I-11
I1
I-9
tp58
I1
s(I-13
I6
I-1
tp59
I1
s(I-1
I3
I-5
tp60
I1
s(I-4
I5
I-10
tp61
I1
s(I-2
I0
I-2
tp62
I1
s(I-10
I1
I-8
tp63
I1
s(I-10
I3
I-5
tp64
I1
s(I-12
I5
I-2
tp65
I1
s(I-6
I5
I1
tp66
I1
s(I-4
I1
I-3
tp67
I1
s(I-11
I4
I-3
tp68
I1
s(I-15
I1
I-12
tp69
I1
s(I-15
I3
I-13
tp70
I1
s(I-5
I4
I-9
tp71
I1
s(I-13
I5
I-15
tp72
I1
s(I-16
I6
I-5
tp73
I1
s(I-5
I2
I-1
tp74
I1
s(I-14
I1
I-11
tp75
I1
s(I1
I6
I-8
tp76
I1
s(I-5
I2
I-4
tp77
I1
s(I-7
I5
I1
tp78
I1
s(I-5
I1
I-4
tp79
I1
s(I-11
I5
I-3
tp80
I1
s(I-4
I6
I-11
tp81
I1
s(I-12
I1
I-9
tp82
I1
s(I-13
I6
I0
tp83
I1
s(I-13
I2
I-10
tp84
I1
s(I-14
I4
I-14
tp85
I1
s(I-1
I0
I-1
tp86
I1
s(I-6
I3
I0
tp87
I1
s(I-19
I2
I-14
tp88
I1
s(I-12
I6
I-3
tp89
I1
s(I-6
I4
I0
tp90
I1
s(I-1
I0
I-2
tp91
I1
s(I-15
I5
I-5
tp92
I1
s(I-6
I2
I-6
tp93
I1
s(I-20
I2
I-15
tp94
I1
s(I-13
I2
I-8
tp95
I1
s(I-4
I2
I-4
tp96
I1
s(I-4
I2
I-2
tp97
I1
s(I-5
I3
I-7
tp98
I1
s(I0
I4
I-6
tp99
I1
s(I-9
I1
I-7
tp100
I1
s(I-2
I1
I-2
tp101
I1
s(I-6
I1
I-6
tp102
I1
s(I-12
I2
I-10
tp103
I1
s(I-12
I2
I-9
tp104
I1
s(I-7
I6
I2
tp105
I1
s(I1
I5
I-7
tp106
I1
s(I-15
I2
I-12
tp107
I1
s(I-5
I3
I-8
tp108
I1
s(I-18
I2
I-14
tp109
I1
s(I-15
I4
I-6
tp110
I1
s(I-13
I1
I-10
tp111
I1
s(I-5
I5
I-9
tp112
I1
s(I-16
I2
I-13
tp113
I1
s(I-12
I4
I-2
tp114
I1
s(I-2
I1
I-3
tp115
I1
s(I-1
I2
I-5
tp116
I1
s(I-8
I1
I-7
tp117
I1
s(I-16
I5
I-5
tp118
I1
s(I-9
I2
I-5
tp119
I1
s(I-12
I5
I-1
tp120
I1
s(I-13
I6
I-15
tp121
I1
s(I-1
I3
I-6
tp122
I1
s(I-6
I3
I-7
tp123
I1
s(I-5
I4
I-8
tp124
I1
s(I0
I0
I0
tp125
I1
s(I-17
I2
I-13
tp126
I1
s(I-10
I4
I-4
tp127
I1
s(I-1
I1
I-4
tp128
I1
s(I-4
I5
I-9
tp129
I1
s(I-14
I4
I-7
tp130
I1
s(I-12
I7
I-2
tp131
I1
s(I-16
I6
I-4
tp132
I1
s(I-12
I5
I-3
tp133
I1
s(I-13
I3
I-8
tp134
I1
s(I-4
I1
I-4
tp135
I1
s(I-11
I4
I-4
tp136
I1
s(I0
I5
I-7
tp137
I1
s(I-15
I1
I-11
tp138
I1
s(I-15
I3
I-12
tp139
I1
s(I-13
I4
I-14
tp140
I1
ssb.