(i__main__
LoadStruct
p0
(dp1
S'playerpos'
p2
(ivec
Vec3
p3
(dp4
S'y'
p5
F6.401938799480953
sS'x'
p6
F4.360659776265843
sS'z'
p7
F-5.645497018919253
sbsS'playeraimyaw'
p8
F-0.645000000000499
sS'playeraimpitch'
p9
F-38.2700000000028
sS'space'
p10
(dp11
(I3
I0
I3
tp12
I1
s(I-4
I11
I0
tp13
I1
s(I1
I1
I-3
tp14
I2
s(I-1
I8
I-1
tp15
I17
s(I1
I-1
I-1
tp16
I1
s(I0
I2
I1
tp17
I2
s(I-1
I3
I2
tp18
I2
s(I3
I-1
I-3
tp19
I1
s(I0
I-3
I0
tp20
I1
s(I3
I1
I4
tp21
I2
s(I1
I2
I0
tp22
I3
s(I-2
I1
I-2
tp23
I2
s(I-3
I1
I4
tp24
I2
s(I-3
I-1
I0
tp25
I1
s(I-2
I4
I1
tp26
I3
s(I4
I1
I1
tp27
I2
s(I-1
I0
I0
tp28
I1
s(I-3
I4
I2
tp29
I3
s(I-5
I0
I-1
tp30
I1
s(I0
I4
I2
tp31
I3
s(I-1
I1
I1
tp32
I1
s(I1
I0
I-1
tp33
I1
s(I0
I1
I-3
tp34
I2
s(I0
I1
I0
tp35
I2
s(I-2
I-1
I-2
tp36
I1
s(I1
I-1
I-3
tp37
I1
s(I-1
I2
I0
tp38
I3
s(I-4
I12
I-1
tp39
I2
s(I3
I4
I1
tp40
I20
s(I4
I-3
I-2
tp41
I6
s(I0
I-1
I-3
tp42
I1
s(I-2
I7
I0
tp43
I17
s(I1
I2
I-3
tp44
I3
s(I1
I-2
I1
tp45
I1
s(I3
I1
I-3
tp46
I2
s(I0
I3
I3
tp47
I3
s(I3
I2
I-3
tp48
I3
s(I-1
I0
I2
tp49
I1
s(I0
I-1
I0
tp50
I1
s(I-5
I2
I2
tp51
I2
s(I1
I1
I0
tp52
I2
s(I-2
I-1
I1
tp53
I1
s(I0
I1
I-2
tp54
I2
s(I-5
I1
I0
tp55
I1
s(I3
I-3
I-1
tp56
I1
s(I4
I2
I3
tp57
I2
s(I-1
I0
I4
tp58
I1
s(I-3
I3
I2
tp59
I2
s(I3
I0
I4
tp60
I1
s(I-4
I11
I1
tp61
I1
s(I1
I-3
I0
tp62
I1
s(I-2
I6
I0
tp63
I17
s(I-2
I-1
I3
tp64
I1
s(I0
I2
I0
tp65
I3
s(I0
I0
I-2
tp66
I1
s(I-4
I3
I4
tp67
I3
s(I1
I-2
I-2
tp68
I1
s(I3
I1
I3
tp69
I1
s(I-5
I3
I1
tp70
I3
s(I-4
I0
I2
tp71
I1
s(I-2
I1
I0
tp72
I2
s(I-2
I7
I-1
tp73
I17
s(I-2
I7
I1
tp74
I17
s(I-6
I3
I2
tp75
I3
s(I-1
I2
I4
tp76
I2
s(I0
I-2
I2
tp77
I1
s(I-1
I4
I0
tp78
I16
s(I-2
I0
I-1
tp79
I1
s(I4
I-3
I0
tp80
I6
s(I4
I1
I2
tp81
I1
s(I-4
I0
I3
tp82
I1
s(I-3
I4
I3
tp83
I3
s(I-2
I8
I0
tp84
I17
s(I1
I-1
I1
tp85
I1
s(I3
I2
I-1
tp86
I3
s(I0
I1
I-1
tp87
I2
s(I3
I0
I2
tp88
I1
s(I0
I1
I1
tp89
I1
s(I1
I-2
I-1
tp90
I1
s(I0
I-2
I-3
tp91
I1
s(I4
I-1
I-3
tp92
I9
s(I1
I0
I0
tp93
I1
s(I-5
I0
I0
tp94
I1
s(I1
I1
I2
tp95
I1
s(I3
I4
I2
tp96
I3
s(I4
I3
I1
tp97
I3
s(I3
I3
I4
tp98
I3
s(I0
I-1
I2
tp99
I1
s(I1
I2
I-2
tp100
I3
s(I-5
I3
I-2
tp101
I3
s(I0
I-3
I-1
tp102
I1
s(I3
I0
I-3
tp103
I1
s(I3
I-2
I-2
tp104
I1
s(I2
I1
I2
tp105
I1
s(I1
I0
I4
tp106
I1
s(I0
I-1
I3
tp107
I1
s(I-2
I2
I1
tp108
I1
s(I-5
I2
I3
tp109
I2
s(I2
I-3
I-2
tp110
I1
s(I2
I0
I-3
tp111
I1
s(I1
I1
I3
tp112
I1
s(I-4
I11
I-1
tp113
I1
s(I-2
I-1
I0
tp114
I1
s(I3
I-3
I-3
tp115
I1
s(I4
I4
I2
tp116
I3
s(I4
I-2
I0
tp117
I4
s(I4
I2
I2
tp118
I1
s(I3
I-2
I-1
tp119
I1
s(I-3
I3
I1
tp120
I2
s(I-1
I-2
I-2
tp121
I1
s(I1
I4
I2
tp122
I3
s(I3
I-2
I-3
tp123
I1
s(I3
I0
I0
tp124
I1
s(I0
I2
I3
tp125
I2
s(I-7
I3
I2
tp126
I3
s(I-2
I3
I4
tp127
I3
s(I2
I0
I1
tp128
I1
s(I4
I-2
I-3
tp129
I10
s(I3
I1
I2
tp130
I1
s(I-1
I7
I1
tp131
I17
s(I-5
I3
I0
tp132
I3
s(I-4
I0
I1
tp133
I1
s(I-5
I2
I-2
tp134
I2
s(I-2
I2
I3
tp135
I2
s(I2
I-1
I1
tp136
I1
s(I-3
I3
I0
tp137
I3
s(I3
I2
I4
tp138
I2
s(I4
I1
I3
tp139
I1
s(I-3
I0
I0
tp140
I1
s(I-5
I1
I-2
tp141
I2
s(I1
I2
I-1
tp142
I3
s(I-2
I1
I1
tp143
I1
s(I-1
I-2
I-1
tp144
I1
s(I-4
I12
I1
tp145
I2
s(I1
I-1
I2
tp146
I1
s(I2
I3
I3
tp147
I3
s(I0
I1
I2
tp148
I1
s(I2
I-2
I0
tp149
I1
s(I1
I0
I1
tp150
I1
s(I-5
I3
I-1
tp151
I3
s(I1
I-2
I0
tp152
I1
s(I-1
I1
I-2
tp153
I2
s(I-3
I0
I-1
tp154
I1
s(I0
I8
I0
tp155
I17
s(I-5
I0
I1
tp156
I1
s(I-1
I-1
I-3
tp157
I1
s(I2
I4
I2
tp158
I3
s(I4
I0
I4
tp159
I1
s(I-1
I-2
I0
tp160
I1
s(I0
I3
I1
tp161
I3
s(I1
I1
I-2
tp162
I2
s(I-2
I0
I4
tp163
I1
s(I-1
I0
I-1
tp164
I1
s(I2
I1
I3
tp165
I1
s(I0
I2
I-2
tp166
I3
s(I-5
I2
I0
tp167
I2
s(I-1
I8
I1
tp168
I17
s(I0
I2
I-1
tp169
I3
s(I1
I0
I-2
tp170
I1
s(I1
I-3
I-2
tp171
I1
s(I-3
I0
I2
tp172
I1
s(I3
I-1
I1
tp173
I1
s(I-4
I2
I4
tp174
I2
s(I1
I0
I3
tp175
I1
s(I3
I-3
I0
tp176
I1
s(I-5
I1
I-1
tp177
I2
s(I0
I-1
I-1
tp178
I1
s(I2
I2
I-3
tp179
I3
s(I-3
I12
I2
tp180
I2
s(I1
I1
I-1
tp181
I2
s(I0
I2
I2
tp182
I1
s(I4
I1
I4
tp183
I2
s(I-4
I3
I2
tp184
I2
s(I2
I0
I0
tp185
I1
s(I3
I1
I1
tp186
I1
s(I-5
I3
I3
tp187
I3
s(I1
I2
I3
tp188
I2
s(I-3
I1
I1
tp189
I1
s(I-1
I2
I-1
tp190
I3
s(I-2
I2
I2
tp191
I1
s(I0
I-1
I-2
tp192
I1
s(I-2
I1
I-1
tp193
I2
s(I-1
I4
I2
tp194
I3
s(I-4
I5
I2
tp195
I3
s(I-2
I0
I-3
tp196
I1
s(I3
I3
I1
tp197
I3
s(I-3
I4
I1
tp198
I3
s(I1
I3
I4
tp199
I3
s(I-4
I12
I0
tp200
I2
s(I-2
I1
I4
tp201
I2
s(I-3
I13
I1
tp202
I3
s(I1
I0
I-3
tp203
I1
s(I2
I2
I3
tp204
I2
s(I0
I1
I3
tp205
I1
s(I4
I0
I3
tp206
I1
s(I-4
I2
I1
tp207
I2
s(I-1
I-1
I0
tp208
I1
s(I2
I3
I1
tp209
I3
s(I-5
I0
I2
tp210
I1
s(I4
I-3
I-1
tp211
I6
s(I3
I2
I-2
tp212
I3
s(I0
I0
I4
tp213
I1
s(I0
I-2
I-1
tp214
I1
s(I0
I6
I0
tp215
I17
s(I-3
I11
I2
tp216
I1
s(I-2
I-1
I2
tp217
I1
s(I1
I-3
I-3
tp218
I1
s(I-3
I-1
I1
tp219
I1
s(I4
I2
I4
tp220
I2
s(I-4
I0
I0
tp221
I1
s(I-3
I14
I0
tp222
I3
s(I-1
I3
I-1
tp223
I18
s(I-1
I2
I-2
tp224
I3
s(I-1
I5
I0
tp225
I16
s(I-2
I3
I1
tp226
I2
s(I-5
I2
I1
tp227
I2
s(I-1
I8
I0
tp228
I17
s(I2
I-3
I-3
tp229
I1
s(I-4
I1
I0
tp230
I2
s(I-1
I6
I-1
tp231
I17
s(I-4
I1
I-2
tp232
I2
s(I-5
I11
I1
tp233
I1
s(I4
I-1
I0
tp234
I4
s(I4
I-2
I-2
tp235
I9
s(I-1
I7
I0
tp236
I17
s(I-4
I13
I0
tp237
I3
s(I-1
I-2
I2
tp238
I1
s(I-4
I3
I-2
tp239
I3
s(I-1
I2
I2
tp240
I1
s(I0
I0
I-1
tp241
I1
s(I3
I2
I2
tp242
I1
s(I-4
I3
I3
tp243
I3
s(I-1
I-1
I1
tp244
I1
s(I-4
I0
I-1
tp245
I1
s(I2
I-3
I0
tp246
I1
s(I2
I2
I4
tp247
I2
s(I2
I0
I3
tp248
I1
s(I3
I1
I0
tp249
I2
s(I-5
I3
I2
tp250
I3
s(I-4
I-1
I1
tp251
I1
s(I-2
I4
I2
tp252
I3
s(I1
I2
I4
tp253
I2
s(I-3
I1
I0
tp254
I2
s(I3
I0
I-1
tp255
I1
s(I0
I7
I0
tp256
I17
s(I-1
I-1
I2
tp257
I1
s(I-4
I2
I-1
tp258
I3
s(I-1
I3
I0
tp259
I16
s(I4
I-1
I-2
tp260
I9
s(I1
I3
I3
tp261
I3
s(I-1
I-1
I-1
tp262
I1
s(I4
I3
I4
tp263
I3
s(I-1
I2
I-3
tp264
I3
s(I-2
I3
I2
tp265
I2
s(I-3
I13
I0
tp266
I2
s(I1
I-1
I0
tp267
I1
s(I0
I1
I4
tp268
I2
s(I-1
I9
I0
tp269
I17
s(I4
I0
I2
tp270
I1
s(I-4
I2
I0
tp271
I3
s(I2
I3
I2
tp272
I2
s(I-2
I0
I2
tp273
I1
s(I-5
I0
I3
tp274
I1
s(I-4
I3
I-1
tp275
I19
s(I-3
I2
I1
tp276
I1
s(I0
I0
I3
tp277
I1
s(I-3
I11
I1
tp278
I1
s(I-1
I-2
I1
tp279
I1
s(I-3
I1
I-2
tp280
I2
s(I-5
I1
I4
tp281
I2
s(I3
I0
I-2
tp282
I1
s(I-1
I1
I4
tp283
I2
s(I2
I1
I1
tp284
I1
s(I-3
I0
I-2
tp285
I1
s(I3
I-1
I-2
tp286
I1
s(I1
I1
I4
tp287
I2
s(I0
I-2
I0
tp288
I1
s(I3
I-2
I0
tp289
I1
s(I-5
I11
I0
tp290
I1
s(I-1
I3
I4
tp291
I3
s(I-2
I-2
I1
tp292
I1
s(I-2
I3
I3
tp293
I3
s(I-4
I13
I1
tp294
I3
s(I2
I-3
I-1
tp295
I1
s(I-3
I12
I0
tp296
I1
s(I0
I0
I-3
tp297
I1
s(I3
I2
I3
tp298
I2
s(I2
I0
I2
tp299
I1
s(I-5
I4
I1
tp300
I3
s(I-4
I3
I0
tp301
I3
s(I-1
I0
I-3
tp302
I1
s(I-1
I0
I-2
tp303
I1
s(I-2
I1
I2
tp304
I1
s(I-2
I-2
I0
tp305
I1
s(I-2
I11
I2
tp306
I1
s(I4
I0
I-2
tp307
I4
s(I-3
I1
I3
tp308
I1
s(I0
I7
I1
tp309
I17
s(I2
I2
I1
tp310
I2
s(I4
I3
I3
tp311
I3
s(I3
I2
I0
tp312
I3
s(I0
I-2
I-2
tp313
I1
s(I1
I3
I2
tp314
I2
s(I0
I7
I-1
tp315
I17
s(I2
I-1
I0
tp316
I1
s(I2
I4
I1
tp317
I21
s(I-4
I4
I3
tp318
I3
s(I1
I-3
I-1
tp319
I1
s(I4
I0
I1
tp320
I1
s(I-4
I2
I3
tp321
I2
s(I2
I-2
I-2
tp322
I22
s(I-1
I1
I-3
tp323
I2
s(I3
I-1
I-1
tp324
I1
s(I1
I2
I2
tp325
I1
s(I-2
I0
I1
tp326
I1
s(I-5
I0
I4
tp327
I1
s(I-2
I2
I-2
tp328
I3
s(I3
I-3
I-2
tp329
I1
s(I2
I-1
I-3
tp330
I1
s(I-3
I2
I2
tp331
I1
s(I0
I0
I2
tp332
I1
s(I2
I2
I0
tp333
I3
s(I-4
I13
I-1
tp334
I3
s(I-3
I11
I0
tp335
I1
s(I-5
I1
I3
tp336
I1
s(I0
I3
I4
tp337
I3
s(I3
I3
I2
tp338
I2
s(I-4
I1
I1
tp339
I1
s(I4
I-2
I-1
tp340
I4
s(I3
I0
I1
tp341
I1
s(I-4
I1
I-1
tp342
I2
s(I-4
I1
I2
tp343
I1
s(I-1
I2
I3
tp344
I2
s(I-3
I0
I1
tp345
I1
s(I-1
I0
I1
tp346
I1
s(I-2
I3
I0
tp347
I3
s(I-1
I1
I3
tp348
I1
s(I3
I-1
I0
tp349
I1
s(I-3
I12
I1
tp350
I2
s(I-3
I2
I-2
tp351
I3
s(I-3
I2
I0
tp352
I2
s(I-4
I3
I1
tp353
I3
s(I5
I0
I2
tp354
I1
s(I3
I1
I-1
tp355
I2
s(I-2
I1
I3
tp356
I1
s(I4
I0
I-3
tp357
I4
s(I-3
I1
I2
tp358
I1
s(I-2
I-1
I-1
tp359
I1
s(I2
I3
I4
tp360
I3
s(I-1
I0
I3
tp361
I1
s(I-1
I-1
I-2
tp362
I1
s(I4
I3
I2
tp363
I2
s(I-3
I13
I2
tp364
I3
s(I-2
I2
I-1
tp365
I3
s(I3
I3
I3
tp366
I3
s(I-4
I4
I2
tp367
I3
s(I4
I0
I0
tp368
I1
s(I-4
I2
I2
tp369
I1
s(I-3
I-1
I-1
tp370
I1
s(I-2
I0
I0
tp371
I1
s(I-1
I3
I3
tp372
I3
s(I-3
I2
I3
tp373
I2
s(I0
I0
I1
tp374
I1
s(I0
I-1
I1
tp375
I1
s(I-1
I-1
I3
tp376
I1
s(I-5
I1
I2
tp377
I1
s(I2
I1
I-3
tp378
I2
s(I4
I2
I1
tp379
I2
s(I-3
I-1
I2
tp380
I1
s(I-3
I2
I-1
tp381
I3
s(I-5
I12
I0
tp382
I2
s(I-1
I6
I1
tp383
I17
s(I-1
I2
I1
tp384
I2
s(I-5
I2
I4
tp385
I3
s(I-4
I1
I3
tp386
I1
s(I-1
I-2
I-3
tp387
I1
s(I-5
I2
I-1
tp388
I2
s(I-1
I3
I1
tp389
I3
s(I-4
I1
I4
tp390
I2
s(I2
I0
I4
tp391
I1
s(I-2
I-1
I-3
tp392
I1
s(I1
I-2
I-3
tp393
I1
s(I-3
I3
I4
tp394
I3
s(I3
I2
I1
tp395
I2
s(I1
I3
I1
tp396
I3
s(I4
I1
I0
tp397
I2
s(I5
I0
I3
tp398
I1
s(I4
I0
I-1
tp399
I4
s(I2
I1
I0
tp400
I2
s(I-1
I1
I0
tp401
I2
s(I2
I-2
I1
tp402
I1
s(I-4
I2
I-2
tp403
I2
s(I-4
I0
I4
tp404
I1
s(I0
I2
I4
tp405
I2
s(I1
I0
I2
tp406
I1
s(I-1
I1
I-1
tp407
I2
s(I1
I2
I1
tp408
I2
s(I4
I-3
I-3
tp409
I5
s(I2
I-2
I-1
tp410
I22
s(I-3
I2
I4
tp411
I2
s(I2
I-2
I-3
tp412
I1
s(I-3
I1
I-1
tp413
I2
s(I-4
I4
I1
tp414
I3
s(I-1
I7
I-1
tp415
I17
s(I4
I-1
I-1
tp416
I4
s(I-1
I6
I0
tp417
I16
s(I3
I1
I-2
tp418
I2
s(I0
I3
I2
tp419
I2
s(I-2
I0
I3
tp420
I1
s(I1
I-1
I-2
tp421
I1
s(I-2
I0
I-2
tp422
I1
s(I2
I1
I4
tp423
I2
s(I0
I2
I-3
tp424
I3
s(I0
I0
I0
tp425
I1
s(I1
I1
I1
tp426
I1
s(I-2
I2
I4
tp427
I2
s(I2
I2
I2
tp428
I1
s(I0
I-2
I1
tp429
I1
s(I-5
I1
I1
tp430
I1
s(I-1
I1
I2
tp431
I1
s(I-3
I0
I3
tp432
I1
s(I4
I2
I0
tp433
I3
s(I-3
I3
I3
tp434
I3
s(I-2
I2
I0
tp435
I2
s(I-3
I0
I4
tp436
I1
ssb.