(i__main__
LoadStruct
p0
(dp1
S'playerpos'
p2
(ivec
Vec3
p3
(dp4
S'y'
p5
F6.421993876793956
sS'x'
p6
F3.0124045993755257
sS'z'
p7
F-2.5099310944603594
sbsS'playeraimyaw'
p8
F-0.7500000000004695
sS'playeraimpitch'
p9
F-38.18000000000284
sS'space'
p10
(dp11
(I3
I0
I3
tp12
I1
s(I-4
I11
I0
tp13
I1
s(I1
I1
I-3
tp14
I2
s(I-1
I8
I-1
tp15
I17
s(I1
I-1
I-2
tp16
I1
s(I0
I2
I1
tp17
I2
s(I-1
I3
I2
tp18
I2
s(I3
I-1
I-3
tp19
I1
s(I0
I-3
I0
tp20
I1
s(I3
I1
I4
tp21
I2
s(I1
I2
I0
tp22
I3
s(I2
I-3
I-2
tp23
I1
s(I-3
I1
I4
tp24
I2
s(I-3
I-1
I0
tp25
I1
s(I-2
I4
I1
tp26
I3
s(I4
I1
I1
tp27
I2
s(I-1
I0
I0
tp28
I1
s(I-3
I4
I2
tp29
I3
s(I-5
I0
I-1
tp30
I1
s(I0
I4
I2
tp31
I3
s(I-1
I1
I1
tp32
I1
s(I1
I0
I-1
tp33
I1
s(I0
I1
I-3
tp34
I2
s(I0
I1
I0
tp35
I2
s(I-2
I-1
I-2
tp36
I1
s(I1
I-1
I-3
tp37
I1
s(I2
I-2
I0
tp38
I1
s(I-4
I12
I-1
tp39
I2
s(I3
I4
I1
tp40
I20
s(I4
I-3
I-2
tp41
I6
s(I0
I-1
I-3
tp42
I1
s(I-2
I7
I0
tp43
I17
s(I1
I2
I-3
tp44
I3
s(I1
I-2
I1
tp45
I1
s(I3
I1
I-3
tp46
I2
s(I0
I3
I3
tp47
I3
s(I3
I2
I-3
tp48
I3
s(I-1
I0
I2
tp49
I1
s(I0
I-1
I0
tp50
I1
s(I-5
I2
I2
tp51
I2
s(I1
I1
I0
tp52
I2
s(I-1
I-2
I1
tp53
I1
s(I0
I1
I-2
tp54
I2
s(I-5
I1
I0
tp55
I1
s(I3
I-3
I-1
tp56
I1
s(I4
I-1
I1
tp57
I3
s(I4
I2
I3
tp58
I2
s(I-1
I0
I4
tp59
I1
s(I-3
I3
I2
tp60
I2
s(I3
I0
I4
tp61
I1
s(I-4
I11
I1
tp62
I1
s(I1
I-3
I0
tp63
I1
s(I-2
I6
I0
tp64
I17
s(I2
I2
I3
tp65
I2
s(I0
I2
I0
tp66
I3
s(I0
I0
I-2
tp67
I1
s(I-4
I3
I4
tp68
I3
s(I1
I-1
I-1
tp69
I1
s(I3
I1
I3
tp70
I1
s(I-5
I3
I1
tp71
I3
s(I-4
I0
I2
tp72
I1
s(I-2
I1
I0
tp73
I2
s(I3
I3
I-5
tp74
I1
s(I-2
I7
I1
tp75
I17
s(I-6
I3
I2
tp76
I3
s(I-1
I2
I4
tp77
I2
s(I0
I2
I-1
tp78
I3
s(I-1
I4
I0
tp79
I16
s(I-2
I0
I-1
tp80
I1
s(I4
I-3
I0
tp81
I6
s(I4
I1
I2
tp82
I1
s(I-4
I0
I3
tp83
I1
s(I-3
I4
I3
tp84
I3
s(I-2
I8
I0
tp85
I17
s(I2
I3
I-3
tp86
I5
s(I1
I-1
I1
tp87
I1
s(I3
I2
I-1
tp88
I3
s(I0
I1
I-1
tp89
I2
s(I-3
I-1
I2
tp90
I1
s(I0
I1
I1
tp91
I1
s(I1
I-2
I-1
tp92
I1
s(I0
I-2
I-3
tp93
I1
s(I4
I-2
I-3
tp94
I10
s(I1
I0
I0
tp95
I1
s(I-5
I0
I0
tp96
I1
s(I1
I-3
I-2
tp97
I1
s(I3
I4
I2
tp98
I3
s(I4
I3
I1
tp99
I3
s(I3
I3
I4
tp100
I3
s(I0
I-1
I2
tp101
I1
s(I1
I2
I-2
tp102
I3
s(I-5
I3
I-2
tp103
I3
s(I0
I-3
I-1
tp104
I1
s(I3
I0
I-3
tp105
I1
s(I3
I-2
I-2
tp106
I1
s(I2
I1
I2
tp107
I1
s(I1
I0
I4
tp108
I1
s(I0
I-1
I3
tp109
I1
s(I-5
I2
I3
tp110
I2
s(I-1
I1
I-2
tp111
I2
s(I2
I0
I-3
tp112
I1
s(I1
I1
I3
tp113
I1
s(I-4
I11
I-1
tp114
I1
s(I-2
I-2
I0
tp115
I1
s(I3
I-3
I-3
tp116
I1
s(I4
I4
I2
tp117
I3
s(I-2
I7
I-1
tp118
I17
s(I4
I-2
I0
tp119
I4
s(I4
I2
I2
tp120
I1
s(I3
I-2
I-1
tp121
I1
s(I-3
I3
I1
tp122
I2
s(I-1
I-2
I-2
tp123
I1
s(I1
I4
I2
tp124
I3
s(I3
I-2
I-3
tp125
I1
s(I3
I0
I0
tp126
I1
s(I0
I2
I3
tp127
I2
s(I-7
I3
I2
tp128
I3
s(I-2
I3
I4
tp129
I3
s(I3
I3
I-4
tp130
I1
s(I2
I0
I1
tp131
I1
s(I4
I2
I1
tp132
I2
s(I3
I1
I2
tp133
I1
s(I-1
I7
I1
tp134
I17
s(I-5
I3
I0
tp135
I3
s(I-4
I0
I1
tp136
I1
s(I-5
I2
I-2
tp137
I2
s(I-2
I2
I3
tp138
I2
s(I2
I-2
I1
tp139
I1
s(I-3
I3
I0
tp140
I3
s(I3
I2
I4
tp141
I2
s(I4
I1
I3
tp142
I1
s(I3
I0
I-2
tp143
I1
s(I-5
I1
I-2
tp144
I2
s(I1
I2
I-1
tp145
I3
s(I-2
I1
I1
tp146
I1
s(I-1
I-2
I-1
tp147
I1
s(I-4
I12
I1
tp148
I2
s(I1
I-1
I2
tp149
I1
s(I2
I3
I3
tp150
I3
s(I0
I1
I2
tp151
I1
s(I-2
I2
I0
tp152
I2
s(I1
I0
I1
tp153
I1
s(I-5
I3
I-1
tp154
I3
s(I1
I0
I-2
tp155
I1
s(I-2
I1
I-2
tp156
I2
s(I3
I-1
I-1
tp157
I1
s(I0
I8
I0
tp158
I17
s(I-5
I0
I1
tp159
I1
s(I-1
I-1
I-3
tp160
I1
s(I2
I4
I2
tp161
I3
s(I4
I0
I4
tp162
I1
s(I-1
I-2
I0
tp163
I1
s(I0
I3
I1
tp164
I3
s(I1
I1
I-2
tp165
I2
s(I-2
I0
I4
tp166
I1
s(I-1
I0
I-1
tp167
I1
s(I2
I1
I3
tp168
I1
s(I0
I7
I0
tp169
I17
s(I0
I-2
I2
tp170
I1
s(I-5
I2
I0
tp171
I2
s(I-1
I8
I1
tp172
I17
s(I0
I2
I-2
tp173
I3
s(I1
I-1
I0
tp174
I1
s(I1
I-3
I-1
tp175
I1
s(I-3
I0
I2
tp176
I1
s(I3
I-1
I1
tp177
I1
s(I-4
I2
I4
tp178
I2
s(I1
I0
I3
tp179
I1
s(I3
I-3
I0
tp180
I1
s(I-5
I1
I-1
tp181
I2
s(I0
I-1
I-1
tp182
I1
s(I2
I2
I-3
tp183
I3
s(I-3
I12
I2
tp184
I2
s(I1
I1
I-1
tp185
I2
s(I0
I2
I2
tp186
I1
s(I4
I1
I4
tp187
I2
s(I-4
I3
I2
tp188
I2
s(I2
I0
I0
tp189
I1
s(I3
I1
I1
tp190
I1
s(I-5
I3
I3
tp191
I3
s(I1
I2
I3
tp192
I2
s(I-3
I1
I1
tp193
I1
s(I2
I-2
I-2
tp194
I22
s(I-2
I2
I2
tp195
I1
s(I0
I-1
I-2
tp196
I1
s(I-1
I1
I-1
tp197
I2
s(I-1
I4
I2
tp198
I3
s(I-4
I5
I2
tp199
I3
s(I-2
I0
I-3
tp200
I1
s(I3
I3
I1
tp201
I3
s(I-3
I4
I1
tp202
I3
s(I1
I3
I4
tp203
I3
s(I-4
I12
I0
tp204
I2
s(I-2
I1
I4
tp205
I2
s(I-3
I13
I1
tp206
I3
s(I1
I0
I-3
tp207
I1
s(I-1
I-1
I3
tp208
I1
s(I0
I1
I3
tp209
I1
s(I4
I0
I3
tp210
I1
s(I-4
I2
I1
tp211
I2
s(I-1
I-1
I0
tp212
I1
s(I2
I3
I1
tp213
I3
s(I-5
I0
I2
tp214
I1
s(I4
I-3
I-1
tp215
I6
s(I3
I2
I-2
tp216
I3
s(I0
I0
I4
tp217
I1
s(I0
I-2
I-1
tp218
I1
s(I0
I6
I0
tp219
I17
s(I-3
I11
I2
tp220
I1
s(I-1
I-1
I2
tp221
I1
s(I1
I-3
I-3
tp222
I1
s(I-3
I-1
I1
tp223
I1
s(I4
I2
I4
tp224
I2
s(I-4
I0
I0
tp225
I1
s(I-3
I14
I0
tp226
I3
s(I-1
I3
I-1
tp227
I18
s(I-1
I2
I-1
tp228
I3
s(I-1
I5
I0
tp229
I16
s(I-2
I3
I1
tp230
I2
s(I-5
I2
I1
tp231
I2
s(I-1
I8
I0
tp232
I17
s(I2
I-3
I-3
tp233
I1
s(I-4
I1
I0
tp234
I2
s(I-1
I6
I-1
tp235
I17
s(I-4
I1
I-2
tp236
I2
s(I-5
I11
I1
tp237
I1
s(I3
I3
I-3
tp238
I1
s(I4
I-1
I0
tp239
I4
s(I4
I-2
I-2
tp240
I9
s(I-1
I7
I0
tp241
I17
s(I-4
I13
I0
tp242
I3
s(I-2
I-1
I2
tp243
I1
s(I-4
I3
I-2
tp244
I3
s(I-1
I2
I2
tp245
I1
s(I0
I0
I-1
tp246
I1
s(I3
I2
I2
tp247
I1
s(I-4
I3
I3
tp248
I3
s(I2
I2
I1
tp249
I2
s(I-4
I0
I-1
tp250
I1
s(I2
I-3
I0
tp251
I1
s(I-3
I0
I1
tp252
I1
s(I2
I0
I3
tp253
I1
s(I3
I1
I0
tp254
I2
s(I2
I-2
I-3
tp255
I1
s(I-5
I3
I2
tp256
I3
s(I-4
I-1
I1
tp257
I1
s(I-2
I4
I2
tp258
I3
s(I1
I2
I4
tp259
I2
s(I-3
I1
I0
tp260
I2
s(I-3
I0
I0
tp261
I1
s(I-2
I2
I1
tp262
I1
s(I-1
I-2
I2
tp263
I1
s(I-4
I2
I-1
tp264
I3
s(I-1
I3
I0
tp265
I16
s(I4
I-1
I-2
tp266
I9
s(I1
I3
I3
tp267
I3
s(I-1
I-1
I-1
tp268
I1
s(I4
I3
I4
tp269
I3
s(I2
I3
I-5
tp270
I1
s(I-2
I3
I2
tp271
I2
s(I-3
I13
I0
tp272
I2
s(I1
I-2
I0
tp273
I1
s(I0
I1
I4
tp274
I2
s(I-1
I9
I0
tp275
I17
s(I4
I0
I2
tp276
I1
s(I-4
I2
I0
tp277
I3
s(I2
I3
I2
tp278
I2
s(I-2
I0
I2
tp279
I1
s(I-5
I0
I3
tp280
I1
s(I-4
I3
I-1
tp281
I19
s(I-3
I2
I1
tp282
I1
s(I0
I0
I3
tp283
I1
s(I-3
I11
I1
tp284
I1
s(I-2
I-2
I1
tp285
I1
s(I-3
I1
I-1
tp286
I2
s(I-5
I1
I4
tp287
I2
s(I3
I-2
I0
tp288
I1
s(I-1
I1
I4
tp289
I2
s(I2
I1
I1
tp290
I1
s(I-3
I0
I-2
tp291
I1
s(I3
I-1
I-2
tp292
I1
s(I1
I1
I4
tp293
I2
s(I0
I-2
I0
tp294
I1
s(I3
I-1
I0
tp295
I1
s(I-5
I11
I0
tp296
I1
s(I-1
I3
I4
tp297
I3
s(I-2
I-1
I1
tp298
I1
s(I-1
I3
I3
tp299
I3
s(I-4
I13
I1
tp300
I3
s(I-2
I1
I-1
tp301
I2
s(I-3
I12
I0
tp302
I1
s(I0
I0
I-3
tp303
I1
s(I3
I2
I3
tp304
I2
s(I2
I0
I2
tp305
I1
s(I-5
I4
I1
tp306
I3
s(I-4
I3
I0
tp307
I3
s(I-1
I0
I-3
tp308
I1
s(I-1
I0
I-2
tp309
I1
s(I-2
I1
I2
tp310
I1
s(I2
I2
I0
tp311
I3
s(I-2
I11
I2
tp312
I1
s(I4
I0
I-2
tp313
I4
s(I-3
I1
I3
tp314
I1
s(I0
I7
I1
tp315
I17
s(I-1
I-1
I1
tp316
I1
s(I1
I3
I-3
tp317
I5
s(I3
I2
I0
tp318
I3
s(I0
I-2
I-2
tp319
I1
s(I1
I3
I2
tp320
I2
s(I0
I7
I-1
tp321
I17
s(I2
I-1
I0
tp322
I1
s(I2
I4
I1
tp323
I21
s(I-4
I4
I3
tp324
I3
s(I1
I1
I2
tp325
I1
s(I4
I0
I1
tp326
I1
s(I-4
I2
I3
tp327
I2
s(I-1
I2
I-2
tp328
I3
s(I-1
I1
I-3
tp329
I2
s(I-3
I0
I-1
tp330
I1
s(I1
I2
I2
tp331
I1
s(I-1
I0
I1
tp332
I1
s(I-5
I0
I4
tp333
I1
s(I2
I-2
I-1
tp334
I22
s(I3
I-3
I-2
tp335
I1
s(I-1
I2
I-3
tp336
I3
s(I-3
I2
I2
tp337
I1
s(I0
I0
I2
tp338
I1
s(I-2
I-1
I0
tp339
I1
s(I-4
I13
I-1
tp340
I3
s(I-3
I11
I0
tp341
I1
s(I4
I-2
I1
tp342
I3
s(I-5
I1
I3
tp343
I1
s(I0
I3
I4
tp344
I3
s(I-3
I1
I-2
tp345
I2
s(I-4
I1
I1
tp346
I1
s(I4
I-2
I-1
tp347
I4
s(I3
I0
I1
tp348
I1
s(I-4
I1
I-1
tp349
I2
s(I-4
I1
I2
tp350
I1
s(I-1
I2
I3
tp351
I2
s(I3
I-2
I1
tp352
I3
s(I-2
I0
I1
tp353
I1
s(I-2
I3
I0
tp354
I3
s(I-1
I1
I3
tp355
I1
s(I3
I0
I-1
tp356
I1
s(I-3
I12
I1
tp357
I2
s(I-3
I2
I-2
tp358
I3
s(I-3
I2
I0
tp359
I2
s(I-4
I3
I1
tp360
I3
s(I5
I0
I2
tp361
I1
s(I3
I1
I-1
tp362
I2
s(I-2
I1
I3
tp363
I1
s(I4
I0
I-3
tp364
I4
s(I-3
I1
I2
tp365
I1
s(I-2
I-1
I-1
tp366
I1
s(I2
I3
I4
tp367
I3
s(I1
I3
I-4
tp368
I1
s(I-2
I0
I3
tp369
I1
s(I-1
I-1
I-2
tp370
I1
s(I4
I3
I2
tp371
I2
s(I-3
I13
I2
tp372
I3
s(I-2
I2
I-2
tp373
I3
s(I3
I3
I3
tp374
I3
s(I-4
I4
I2
tp375
I3
s(I4
I0
I0
tp376
I1
s(I-4
I2
I2
tp377
I1
s(I-3
I-1
I-1
tp378
I1
s(I-2
I0
I0
tp379
I1
s(I2
I1
I-3
tp380
I2
s(I-3
I2
I3
tp381
I2
s(I0
I0
I1
tp382
I1
s(I0
I-1
I1
tp383
I1
s(I-2
I-1
I3
tp384
I1
s(I-5
I1
I2
tp385
I1
s(I-2
I3
I3
tp386
I3
s(I4
I-1
I-3
tp387
I9
s(I3
I0
I2
tp388
I1
s(I-3
I2
I-1
tp389
I3
s(I-5
I12
I0
tp390
I2
s(I-1
I6
I1
tp391
I17
s(I-1
I2
I1
tp392
I2
s(I-5
I2
I4
tp393
I3
s(I-4
I1
I3
tp394
I1
s(I-1
I-2
I-3
tp395
I1
s(I-5
I2
I-1
tp396
I2
s(I-1
I3
I1
tp397
I3
s(I-4
I1
I4
tp398
I2
s(I2
I0
I4
tp399
I1
s(I-2
I-1
I-3
tp400
I1
s(I1
I-2
I-3
tp401
I1
s(I-3
I3
I4
tp402
I3
s(I-1
I0
I3
tp403
I1
s(I3
I2
I1
tp404
I2
s(I1
I3
I1
tp405
I3
s(I4
I1
I0
tp406
I2
s(I5
I0
I3
tp407
I1
s(I4
I0
I-1
tp408
I4
s(I2
I1
I0
tp409
I2
s(I-1
I1
I0
tp410
I2
s(I2
I-1
I1
tp411
I1
s(I-4
I2
I-2
tp412
I2
s(I-4
I0
I4
tp413
I1
s(I0
I2
I4
tp414
I2
s(I1
I0
I2
tp415
I1
s(I2
I-3
I-1
tp416
I1
s(I1
I3
I-5
tp417
I1
s(I1
I2
I1
tp418
I2
s(I4
I3
I3
tp419
I3
s(I-2
I2
I-1
tp420
I3
s(I-3
I2
I4
tp421
I2
s(I2
I-1
I-3
tp422
I1
s(I3
I3
I2
tp423
I2
s(I-4
I4
I1
tp424
I3
s(I-1
I7
I-1
tp425
I17
s(I4
I-1
I-1
tp426
I4
s(I-1
I6
I0
tp427
I16
s(I3
I1
I-2
tp428
I2
s(I0
I3
I2
tp429
I2
s(I2
I2
I4
tp430
I2
s(I1
I-2
I-2
tp431
I1
s(I-2
I0
I-2
tp432
I1
s(I2
I1
I4
tp433
I2
s(I0
I2
I-3
tp434
I3
s(I0
I0
I0
tp435
I1
s(I1
I1
I1
tp436
I1
s(I-2
I2
I4
tp437
I2
s(I2
I2
I2
tp438
I1
s(I0
I-2
I1
tp439
I1
s(I-5
I1
I1
tp440
I1
s(I-1
I1
I2
tp441
I1
s(I-3
I0
I3
tp442
I1
s(I4
I2
I0
tp443
I3
s(I-3
I3
I3
tp444
I3
s(I-1
I2
I0
tp445
I3
s(I-3
I0
I4
tp446
I1
ssb.