(i__main__
LoadStruct
p0
(dp1
S'playerpos'
p2
(ivec
Vec3
p3
(dp4
S'y'
p5
F1.976646166456461
sS'x'
p6
F8.5182889401689117
sS'z'
p7
F-2.2933512104733906
sbsS'playeraimyaw'
p8
F14.037499999999982
sS'playeraimpitch'
p9
F-0.31250000000000028
sS'space'
p10
(dp11
(I4
I0
I-13
tp12
I1
s(I8
I0
I-8
tp13
I1
s(I29
I0
I2
tp14
I1
s(I0
I2
I-11
tp15
I1
s(I3
I0
I3
tp16
I1
s(I0
I0
I8
tp17
I1
s(I1
I1
I-3
tp18
I1
s(I30
I0
I1
tp19
I1
s(I-6
I0
I-14
tp20
I1
s(I0
I0
I-14
tp21
I1
s(I7
I1
I-9
tp22
I1
s(I-4
I2
I-4
tp23
I1
s(I0
I2
I1
tp24
I1
s(I-1
I4
I-1
tp25
I1
s(I8
I0
I2
tp26
I1
s(I2
I1
I-4
tp27
I1
s(I5
I2
I-10
tp28
I1
s(I9
I0
I-4
tp29
I1
s(I2
I0
I7
tp30
I1
s(I-4
I0
I-14
tp31
I1
s(I2
I2
I-8
tp32
I1
s(I-10
I0
I1
tp33
I1
s(I0
I3
I-2
tp34
I1
s(I3
I1
I4
tp35
I1
s(I5
I1
I-14
tp36
I1
s(I-5
I1
I-7
tp37
I1
s(I-13
I0
I-2
tp38
I1
s(I1
I2
I0
tp39
I1
s(I-6
I0
I-6
tp40
I1
s(I7
I0
I-8
tp41
I1
s(I2
I2
I-16
tp42
I1
s(I3
I3
I-8
tp43
I1
s(I0
I1
I8
tp44
I1
s(I5
I2
I-5
tp45
I1
s(I1
I1
I-11
tp46
I1
s(I-3
I0
I-2
tp47
I1
s(I0
I0
I-6
tp48
I1
s(I-3
I2
I-8
tp49
I1
s(I-2
I1
I-16
tp50
I1
s(I-1
I0
I-15
tp51
I1
s(I4
I1
I1
tp52
I1
s(I-2
I0
I0
tp53
I1
s(I2
I1
I-12
tp54
I1
s(I4
I2
I-1
tp55
I1
s(I5
I0
I0
tp56
I1
s(I4
I1
I-12
tp57
I1
s(I6
I2
I-7
tp58
I1
s(I0
I0
I-1
tp59
I1
s(I0
I3
I-10
tp60
I1
s(I-2
I1
I1
tp61
I1
s(I-1
I0
I-10
tp62
I1
s(I3
I2
I-13
tp63
I1
s(I5
I1
I-6
tp64
I1
s(I1
I0
I-2
tp65
I1
s(I29
I1
I0
tp66
I1
s(I-4
I1
I-14
tp67
I1
s(I0
I1
I-3
tp68
I1
s(I7
I0
I-16
tp69
I1
s(I-1
I0
I4
tp70
I1
s(I-4
I1
I-2
tp71
I1
s(I-12
I0
I-3
tp72
I1
s(I0
I1
I0
tp73
I1
s(I2
I2
I-1
tp74
I1
s(I1
I0
I3
tp75
I1
s(I-1
I2
I0
tp76
I1
s(I-1
I3
I-7
tp77
I1
s(I-2
I1
I-8
tp78
I1
s(I4
I3
I-7
tp79
I1
s(I-6
I1
I0
tp80
I1
s(I1
I3
I-6
tp81
I1
s(I-5
I2
I-7
tp82
I1
s(I-8
I0
I-3
tp83
I1
s(I-1
I1
I-6
tp84
I1
s(I5
I0
I-15
tp85
I1
s(I-5
I0
I-10
tp86
I1
s(I-2
I1
I6
tp87
I1
s(I-3
I0
I5
tp88
I1
s(I4
I1
I-4
tp89
I1
s(I-6
I1
I-7
tp90
I1
s(I4
I3
I0
tp91
I1
s(I11
I0
I-4
tp92
I1
s(I2
I3
I-9
tp93
I1
s(I3
I2
I-5
tp94
I1
s(I0
I0
I7
tp95
I1
s(I1
I0
I-10
tp96
I1
s(I-3
I2
I-11
tp97
I1
s(I30
I1
I1
tp98
I1
s(I0
I1
I-11
tp99
I1
s(I-3
I1
I-7
tp100
I1
s(I6
I0
I-12
tp101
I1
s(I3
I0
I-14
tp102
I1
s(I-7
I0
I-5
tp103
I1
s(I-2
I1
I-11
tp104
I1
s(I1
I2
I-3
tp105
I1
s(I-10
I0
I0
tp106
I1
s(I-3
I0
I-16
tp107
I1
s(I-6
I0
I-2
tp108
I1
s(I3
I1
I-3
tp109
I1
s(I4
I2
I-11
tp110
I1
s(I-4
I0
I-15
tp111
I1
s(I2
I0
I-1
tp112
I1
s(I28
I0
I9
tp113
I1
s(I5
I0
I-7
tp114
I1
s(I-1
I1
I2
tp115
I1
s(I-7
I0
I2
tp116
I1
s(I2
I1
I5
tp117
I1
s(I-5
I0
I-2
tp118
I1
s(I-6
I0
I-11
tp119
I1
s(I-3
I0
I-7
tp120
I1
s(I0
I2
I-4
tp121
I1
s(I5
I2
I-4
tp122
I1
s(I-6
I0
I-9
tp123
I1
s(I-2
I2
I-12
tp124
I1
s(I1
I1
I0
tp125
I1
s(I7
I1
I-1
tp126
I1
s(I-3
I1
I-15
tp127
I1
s(I-1
I2
I-10
tp128
I1
s(I2
I2
I1
tp129
I1
s(I0
I1
I-2
tp130
I1
s(I-6
I0
I3
tp131
I1
s(I1
I2
I-11
tp132
I1
s(I-2
I0
I-5
tp133
I1
s(I-5
I1
I0
tp134
I1
s(I-3
I3
I-2
tp135
I1
s(I-2
I0
I-14
tp136
I1
s(I3
I1
I-11
tp137
I1
s(I4
I2
I-3
tp138
I1
s(I-2
I1
I-1
tp139
I1
s(I-4
I1
I-12
tp140
I1
s(I2
I0
I-10
tp141
I1
s(I5
I1
I-11
tp142
I1
s(I4
I2
I-6
tp143
I1
s(I4
I0
I-14
tp144
I1
s(I6
I0
I1
tp145
I1
s(I0
I2
I-12
tp146
I1
s(I3
I0
I4
tp147
I1
s(I-2
I0
I4
tp148
I1
s(I1
I1
I-4
tp149
I1
s(I-12
I0
I0
tp150
I1
s(I-5
I1
I-10
tp151
I1
s(I30
I0
I0
tp152
I1
s(I-3
I1
I2
tp153
I1
s(I0
I0
I-15
tp154
I1
s(I3
I0
I-8
tp155
I1
s(I4
I1
I-15
tp156
I1
s(I31
I1
I1
tp157
I1
s(I0
I2
I0
tp158
I1
s(I-7
I0
I-3
tp159
I1
s(I8
I0
I1
tp160
I1
s(I-5
I1
I-11
tp161
I1
s(I2
I1
I-3
tp162
I1
s(I9
I0
I-3
tp163
I1
s(I-3
I2
I-4
tp164
I1
s(I2
I0
I6
tp165
I1
s(I-6
I0
I1
tp166
I1
s(I3
I1
I3
tp167
I1
s(I5
I1
I-3
tp168
I1
s(I-5
I1
I-8
tp169
I1
s(I1
I2
I1
tp170
I1
s(I-2
I1
I0
tp171
I1
s(I7
I0
I-7
tp172
I1
s(I2
I2
I-9
tp173
I1
s(I6
I1
I-4
tp174
I1
s(I1
I1
I-12
tp175
I1
s(I-4
I1
I-5
tp176
I1
s(I-14
I0
I0
tp177
I1
s(I1
I0
I8
tp178
I1
s(I-6
I2
I-6
tp179
I1
s(I-3
I0
I-15
tp180
I1
s(I0
I2
I-1
tp181
I1
s(I0
I0
I-7
tp182
I1
s(I-3
I2
I-7
tp183
I1
s(I-2
I1
I-15
tp184
I1
s(I-11
I0
I-4
tp185
I1
s(I3
I1
I-6
tp186
I1
s(I-1
I1
I-7
tp187
I1
s(I4
I1
I2
tp188
I1
s(I4
I0
I-5
tp189
I1
s(I-4
I0
I-16
tp190
I1
s(I2
I1
I-11
tp191
I1
s(I5
I0
I-10
tp192
I1
s(I5
I0
I1
tp193
I1
s(I-1
I1
I3
tp194
I1
s(I0
I4
I1
tp195
I1
s(I4
I1
I-11
tp196
I1
s(I-6
I1
I-2
tp197
I1
s(I6
I2
I-8
tp198
I1
s(I0
I3
I-9
tp199
I1
s(I2
I3
I-8
tp200
I1
s(I3
I2
I-16
tp201
I1
s(I5
I2
I-1
tp202
I1
s(I-4
I2
I-8
tp203
I1
s(I-3
I2
I0
tp204
I1
s(I-6
I0
I-10
tp205
I1
s(I-3
I0
I-11
tp206
I1
s(I0
I1
I-1
tp207
I1
s(I7
I0
I-15
tp208
I1
s(I-3
I0
I-4
tp209
I1
s(I0
I4
I-2
tp210
I1
s(I0
I1
I1
tp211
I1
s(I6
I1
I-12
tp212
I1
s(I-3
I1
I4
tp213
I1
s(I1
I0
I0
tp214
I1
s(I-2
I1
I-7
tp215
I1
s(I-6
I0
I-12
tp216
I1
s(I-6
I1
I1
tp217
I1
s(I1
I3
I-7
tp218
I1
s(I0
I4
I-1
tp219
I1
s(I-3
I1
I-4
tp220
I1
s(I5
I0
I-2
tp221
I1
s(I-5
I0
I-9
tp222
I1
s(I5
I0
I-1
tp223
I1
s(I-1
I3
I-12
tp224
I1
s(I4
I1
I-3
tp225
I1
s(I11
I0
I-3
tp226
I1
s(I-2
I0
I8
tp227
I1
s(I3
I2
I-8
tp228
I1
s(I0
I0
I6
tp229
I1
s(I-1
I0
I7
tp230
I1
s(I1
I0
I-9
tp231
I1
s(I-2
I2
I-5
tp232
I1
s(I0
I1
I-10
tp233
I1
s(I-3
I1
I-8
tp234
I1
s(I3
I0
I-13
tp235
I1
s(I-7
I0
I-8
tp236
I1
s(I1
I2
I-1
tp237
I1
s(I-6
I1
I-1
tp238
I1
s(I30
I1
I0
tp239
I1
s(I1
I2
I-6
tp240
I1
s(I9
I0
I-14
tp241
I1
s(I5
I1
I2
tp242
I1
s(I-3
I0
I2
tp243
I1
s(I3
I1
I-4
tp244
I1
s(I0
I3
I0
tp245
I1
s(I4
I2
I-12
tp246
I1
s(I-3
I0
I-1
tp247
I1
s(I2
I0
I-7
tp248
I1
s(I-11
I0
I-5
tp249
I1
s(I-9
I0
I-4
tp250
I1
s(I-6
I0
I-7
tp251
I1
s(I2
I1
I2
tp252
I1
s(I8
I0
I-2
tp253
I1
s(I5
I1
I-1
tp254
I1
s(I-5
I0
I0
tp255
I1
s(I-1
I0
I5
tp256
I1
s(I5
I2
I-3
tp257
I1
s(I-4
I0
I-12
tp258
I1
s(I-1
I1
I-1
tp259
I1
s(I-1
I0
I1
tp260
I1
s(I-2
I2
I-13
tp261
I1
s(I1
I1
I3
tp262
I1
s(I-6
I0
I-13
tp263
I1
s(I-1
I2
I-14
tp264
I1
s(I-4
I2
I-3
tp265
I1
s(I3
I0
I-5
tp266
I1
s(I6
I0
I-2
tp267
I1
s(I1
I2
I-10
tp268
I1
s(I5
I2
I-11
tp269
I1
s(I9
I0
I-6
tp270
I1
s(I10
I0
I-1
tp271
I1
s(I-2
I0
I-11
tp272
I1
s(I3
I1
I-12
tp273
I1
s(I2
I2
I-7
tp274
I1
s(I6
I2
I-9
tp275
I1
s(I-1
I1
I-3
tp276
I1
s(I2
I0
I-15
tp277
I1
s(I5
I1
I-12
tp278
I1
s(I-2
I1
I-13
tp279
I1
s(I-13
I0
I-3
tp280
I1
s(I4
I0
I-15
tp281
I1
s(I6
I0
I0
tp282
I1
s(I-4
I1
I1
tp283
I1
s(I0
I2
I-9
tp284
I1
s(I3
I0
I5
tp285
I1
s(I-3
I0
I-3
tp286
I1
s(I5
I2
I-6
tp287
I1
s(I-4
I1
I-6
tp288
I1
s(I-1
I0
I-12
tp289
I1
s(I-5
I2
I-2
tp290
I1
s(I0
I0
I-16
tp291
I1
s(I31
I1
I0
tp292
I1
s(I0
I2
I3
tp293
I1
s(I4
I3
I-9
tp294
I1
s(I8
I0
I0
tp295
I1
s(I-2
I0
I1
tp296
I1
s(I2
I1
I-6
tp297
I1
s(I-3
I1
I0
tp298
I1
s(I-5
I0
I-8
tp299
I1
s(I-4
I0
I-5
tp300
I1
s(I2
I0
I1
tp301
I1
s(I-1
I0
I-5
tp302
I1
s(I-7
I0
I-1
tp303
I1
s(I0
I3
I-4
tp304
I1
s(I3
I1
I2
tp305
I1
s(I5
I1
I-4
tp306
I1
s(I-5
I0
I4
tp307
I1
s(I-4
I1
I-11
tp308
I1
s(I10
I0
I-4
tp309
I1
s(I1
I2
I2
tp310
I1
s(I7
I0
I-6
tp311
I1
s(I2
I2
I-10
tp312
I1
s(I-12
I0
I-2
tp313
I1
s(I6
I1
I-3
tp314
I1
s(I1
I1
I-9
tp315
I1
s(I0
I0
I-13
tp316
I1
s(I-2
I2
I3
tp317
I1
s(I-1
I2
I1
tp318
I1
s(I0
I0
I-8
tp319
I1
s(I-3
I2
I-6
tp320
I1
s(I-1
I3
I-8
tp321
I1
s(I-2
I1
I-10
tp322
I1
s(I-11
I0
I-3
tp323
I1
s(I4
I1
I3
tp324
I1
s(I2
I1
I-14
tp325
I1
s(I-5
I1
I-1
tp326
I1
s(I1
I2
I-2
tp327
I1
s(I-5
I0
I-16
tp328
I1
s(I-1
I1
I1
tp329
I1
s(I-4
I2
I-6
tp330
I1
s(I0
I4
I0
tp331
I1
s(I4
I1
I-10
tp332
I1
s(I0
I3
I-12
tp333
I1
s(I2
I3
I-7
tp334
I1
s(I3
I2
I-15
tp335
I1
s(I29
I0
I0
tp336
I1
s(I1
I0
I-4
tp337
I1
s(I-10
I0
I-5
tp338
I1
s(I8
I0
I-1
tp339
I1
s(I-13
I0
I1
tp340
I1
s(I7
I0
I-14
tp341
I1
s(I-12
I0
I1
tp342
I1
s(I-4
I0
I4
tp343
I1
s(I0
I1
I2
tp344
I1
s(I-1
I1
I-12
tp345
I1
s(I6
I1
I-11
tp346
I1
s(I1
I0
I1
tp347
I1
s(I8
I0
I-11
tp348
I1
s(I-1
I0
I-11
tp349
I1
s(I1
I0
I-1
tp350
I1
s(I2
I3
I0
tp351
I1
s(I1
I3
I-8
tp352
I1
s(I0
I4
I-3
tp353
I1
s(I-5
I0
I1
tp354
I1
s(I-1
I3
I-11
tp355
I1
s(I1
I3
I-2
tp356
I1
s(I4
I1
I-2
tp357
I1
s(I-3
I0
I-8
tp358
I1
s(I-11
I0
I0
tp359
I1
s(I3
I2
I-7
tp360
I1
s(I0
I0
I5
tp361
I1
s(I1
I0
I-12
tp362
I1
s(I-2
I2
I-6
tp363
I1
s(I6
I1
I0
tp364
I1
s(I0
I1
I-9
tp365
I1
s(I-3
I1
I-5
tp366
I1
s(I-1
I2
I-9
tp367
I1
s(I3
I0
I-12
tp368
I1
s(I-7
I0
I-7
tp369
I1
s(I6
I0
I-7
tp370
I1
s(I4
I0
I4
tp371
I1
s(I-2
I0
I-8
tp372
I1
s(I4
I1
I-1
tp373
I1
s(I3
I1
I-5
tp374
I1
s(I0
I3
I1
tp375
I1
s(I4
I2
I-9
tp376
I1
s(I-1
I0
I-6
tp377
I1
s(I1
I1
I-1
tp378
I1
s(I0
I4
I-11
tp379
I1
s(I2
I0
I-8
tp380
I1
s(I-1
I0
I-2
tp381
I1
s(I-9
I0
I-3
tp382
I1
s(I-3
I1
I-16
tp383
I1
s(I-4
I3
I-8
tp384
I1
s(I2
I1
I3
tp385
I1
s(I8
I0
I-3
tp386
I1
s(I-1
I0
I9
tp387
I1
s(I0
I2
I-2
tp388
I1
s(I5
I2
I-2
tp389
I1
s(I1
I4
I-2
tp390
I1
s(I1
I1
I2
tp391
I1
s(I0
I0
I-9
tp392
I1
s(I-3
I1
I-13
tp393
I1
s(I3
I0
I-4
tp394
I1
s(I-7
I0
I-4
tp395
I1
s(I6
I0
I-15
tp396
I1
s(I1
I2
I-9
tp397
I1
s(I31
I0
I0
tp398
I1
s(I9
I0
I-5
tp399
I1
s(I-4
I1
I-7
tp400
I1
s(I-2
I0
I-12
tp401
I1
s(I3
I1
I-13
tp402
I1
s(I-1
I1
I6
tp403
I1
s(I2
I0
I-16
tp404
I1
s(I-3
I3
I0
tp405
I1
s(I5
I1
I-9
tp406
I1
s(I-5
I1
I-2
tp407
I1
s(I-2
I1
I5
tp408
I1
s(I0
I5
I0
tp409
I1
s(I4
I0
I-16
tp410
I1
s(I6
I0
I3
tp411
I1
s(I-1
I2
I-15
tp412
I1
s(I0
I2
I-10
tp413
I1
s(I2
I2
I-3
tp414
I1
s(I-10
I0
I-1
tp415
I1
s(I7
I1
I0
tp416
I1
s(I-4
I0
I2
tp417
I1
s(I6
I1
I-6
tp418
I1
s(I1
I1
I-2
tp419
I1
s(I-1
I3
I-2
tp420
I1
s(I30
I0
I2
tp421
I1
s(I4
I1
I4
tp422
I1
s(I0
I2
I2
tp423
I1
s(I-1
I1
I-8
tp424
I1
s(I1
I3
I-9
tp425
I1
s(I2
I1
I-5
tp426
I1
s(I-5
I0
I-7
tp427
I1
s(I2
I0
I0
tp428
I1
s(I-1
I1
I-15
tp429
I1
s(I0
I3
I-3
tp430
I1
s(I3
I1
I1
tp431
I1
s(I-16
I0
I-2
tp432
I1
s(I-3
I0
I-5
tp433
I1
s(I-2
I0
I-15
tp434
I1
s(I1
I2
I3
tp435
I1
s(I-3
I0
I-12
tp436
I1
s(I0
I1
I-8
tp437
I1
s(I7
I0
I-5
tp438
I1
s(I2
I2
I-11
tp439
I1
s(I-3
I1
I1
tp440
I1
s(I-4
I0
I-6
tp441
I1
s(I6
I1
I-14
tp442
I1
s(I1
I1
I-10
tp443
I1
s(I-2
I2
I2
tp444
I1
s(I-14
I0
I-3
tp445
I1
s(I-3
I2
I-5
tp446
I1
s(I-2
I1
I-9
tp447
I1
s(I-1
I0
I-3
tp448
I1
s(I2
I1
I-13
tp449
I1
s(I-2
I0
I-4
tp450
I1
s(I5
I0
I-12
tp451
I1
s(I-5
I0
I-15
tp452
I1
s(I-8
I0
I1
tp453
I1
s(I6
I1
I-1
tp454
I1
s(I4
I1
I-9
tp455
I1
s(I-6
I1
I-4
tp456
I1
s(I0
I3
I-11
tp457
I1
s(I-2
I1
I4
tp458
I1
s(I-12
I0
I-5
tp459
I1
s(I3
I2
I-10
tp460
I1
s(I1
I0
I-3
tp461
I1
s(I0
I1
I-16
tp462
I1
s(I7
I0
I-13
tp463
I1
s(I0
I1
I3
tp464
I1
s(I10
I0
I-8
tp465
I1
s(I4
I0
I3
tp466
I1
s(I-2
I2
I-14
tp467
I1
s(I1
I0
I6
tp468
I1
s(I1
I2
I-7
tp469
I1
s(I31
I0
I1
tp470
I1
s(I2
I2
I0
tp471
I1
s(I28
I0
I2
tp472
I1
s(I-12
I0
I-1
tp473
I1
s(I5
I0
I-4
tp474
I1
s(I-4
I2
I0
tp475
I1
s(I0
I2
I-7
tp476
I1
s(I6
I0
I-1
tp477
I1
s(I3
I2
I-2
tp478
I1
s(I0
I0
I4
tp479
I1
s(I-1
I1
I-13
tp480
I1
s(I-4
I0
I-11
tp481
I1
s(I1
I0
I-11
tp482
I1
s(I-2
I2
I-7
tp483
I1
s(I-11
I0
I-1
tp484
I1
s(I1
I3
I-14
tp485
I1
s(I6
I1
I1
tp486
I1
s(I7
I1
I-5
tp487
I1
s(I-3
I1
I-6
tp488
I1
s(I3
I0
I-11
tp489
I1
s(I7
I0
I0
tp490
I1
s(I6
I0
I-8
tp491
I1
s(I1
I2
I-16
tp492
I1
s(I5
I2
I-12
tp493
I1
s(I-4
I0
I0
tp494
I1
s(I1
I3
I-13
tp495
I1
s(I4
I2
I-10
tp496
I1
s(I3
I0
I1
tp497
I1
s(I-15
I0
I0
tp498
I1
s(I-1
I1
I-4
tp499
I1
s(I0
I4
I-12
tp500
I1
s(I2
I0
I-5
tp501
I1
s(I9
I0
I0
tp502
I1
s(I2
I1
I0
tp503
I1
s(I-13
I0
I-4
tp504
I1
s(I8
I0
I-4
tp505
I1
s(I-1
I2
I-2
tp506
I1
s(I0
I2
I-15
tp507
I1
s(I-2
I2
I-4
tp508
I1
s(I-7
I0
I0
tp509
I1
s(I1
I1
I-7
tp510
I1
s(I-4
I0
I-7
tp511
I1
s(I-2
I2
I-15
tp512
I1
s(I-5
I0
I-1
tp513
I1
s(I1
I1
I5
tp514
I1
s(I0
I0
I-10
tp515
I1
s(I27
I0
I0
tp516
I1
s(I-3
I1
I-14
tp517
I1
s(I3
I0
I-3
tp518
I1
s(I-5
I0
I-3
tp519
I1
s(I6
I0
I-16
tp520
I1
s(I-1
I0
I-4
tp521
I1
s(I4
I2
I-4
tp522
I1
s(I9
I0
I-8
tp523
I1
s(I-2
I0
I-9
tp524
I1
s(I3
I1
I-14
tp525
I1
s(I4
I2
I-2
tp526
I1
s(I-2
I3
I0
tp527
I1
s(I0
I3
I-6
tp528
I1
s(I2
I0
I-13
tp529
I1
s(I5
I1
I-10
tp530
I1
s(I-5
I1
I-3
tp531
I1
s(I-5
I0
I3
tp532
I1
s(I31
I2
I0
tp533
I1
s(I10
I0
I-3
tp534
I1
s(I4
I0
I-9
tp535
I1
s(I6
I0
I2
tp536
I1
s(I7
I0
I-4
tp537
I1
s(I2
I2
I-4
tp538
I1
s(I1
I4
I0
tp539
I1
s(I-1
I0
I-9
tp540
I1
s(I6
I1
I-5
tp541
I1
s(I1
I1
I-15
tp542
I1
s(I-14
I0
I-2
tp543
I1
s(I-1
I2
I2
tp544
I1
s(I-1
I0
I6
tp545
I1
s(I0
I0
I-2
tp546
I1
s(I3
I2
I2
tp547
I1
s(I-1
I3
I-9
tp548
I1
s(I31
I0
I2
tp549
I1
s(I1
I3
I-10
tp550
I1
s(I2
I1
I-8
tp551
I1
s(I-4
I0
I-2
tp552
I1
s(I5
I0
I4
tp553
I1
s(I2
I3
I-1
tp554
I1
s(I2
I0
I3
tp555
I1
s(I0
I3
I-14
tp556
I1
s(I3
I1
I0
tp557
I1
s(I-1
I2
I-3
tp558
I1
s(I5
I1
I-2
tp559
I1
s(I1
I0
I-6
tp560
I1
s(I-4
I0
I3
tp561
I1
s(I1
I2
I4
tp562
I1
s(I-1
I2
I-16
tp563
I1
s(I0
I1
I-7
tp564
I1
s(I7
I0
I-12
tp565
I1
s(I2
I2
I-12
tp566
I1
s(I-6
I1
I-3
tp567
I1
s(I-3
I0
I0
tp568
I1
s(I-1
I1
I-9
tp569
I1
s(I6
I1
I-13
tp570
I1
s(I-2
I2
I1
tp571
I1
s(I8
I0
I-10
tp572
I1
s(I2
I2
I2
tp573
I1
s(I-1
I1
I-16
tp574
I1
s(I-4
I2
I-2
tp575
I1
s(I-2
I1
I-12
tp576
I1
s(I2
I1
I-1
tp577
I1
s(I-1
I3
I0
tp578
I1
s(I1
I3
I-1
tp579
I1
s(I2
I1
I-16
tp580
I1
s(I5
I0
I-11
tp581
I1
s(I-5
I0
I-14
tp582
I1
s(I-6
I0
I-3
tp583
I1
s(I-8
I0
I0
tp584
I1
s(I4
I1
I-16
tp585
I1
s(I2
I2
I-2
tp586
I1
s(I2
I3
I-5
tp587
I1
s(I3
I2
I-9
tp588
I1
s(I1
I0
I-14
tp589
I1
s(I-4
I0
I-8
tp590
I1
s(I-10
I0
I-3
tp591
I1
s(I0
I1
I-15
tp592
I1
s(I-3
I1
I-3
tp593
I1
s(I-1
I2
I-8
tp594
I1
s(I0
I1
I4
tp595
I1
s(I4
I0
I2
tp596
I1
s(I1
I0
I7
tp597
I1
s(I-2
I1
I-4
tp598
I1
s(I-4
I1
I-3
tp599
I1
s(I28
I0
I1
tp600
I1
s(I2
I0
I-2
tp601
I1
s(I5
I0
I-3
tp602
I1
s(I-16
I0
I-1
tp603
I1
s(I-15
I0
I-1
tp604
I1
s(I4
I1
I-8
tp605
I1
s(I0
I2
I-8
tp606
I1
s(I2
I3
I-13
tp607
I1
s(I-3
I2
I1
tp608
I1
s(I0
I0
I3
tp609
I1
s(I-2
I2
I-8
tp610
I1
s(I7
I1
I-6
tp611
I1
s(I-3
I1
I-11
tp612
I1
s(I-2
I0
I-16
tp613
I1
s(I3
I0
I-10
tp614
I1
s(I7
I0
I1
tp615
I1
s(I6
I0
I-5
tp616
I1
s(I1
I2
I-15
tp617
I1
s(I-5
I2
I-3
tp618
I1
s(I-5
I2
I-6
tp619
I1
s(I-2
I0
I-7
tp620
I1
s(I-1
I3
I-5
tp621
I1
s(I3
I1
I-7
tp622
I1
s(I2
I0
I-6
tp623
I1
s(I9
I0
I1
tp624
I1
s(I-1
I1
I4
tp625
I1
s(I2
I1
I1
tp626
I1
s(I8
I0
I-5
tp627
I1
s(I0
I2
I-16
tp628
I1
s(I3
I0
I0
tp629
I1
s(I5
I2
I-8
tp630
I1
s(I-6
I0
I-4
tp631
I1
s(I1
I1
I-8
tp632
I1
s(I-2
I2
I-16
tp633
I1
s(I1
I1
I4
tp634
I1
s(I-4
I1
I-10
tp635
I1
s(I0
I0
I-11
tp636
I1
s(I-1
I0
I8
tp637
I1
s(I6
I0
I-10
tp638
I1
s(I3
I0
I-2
tp639
I1
s(I-1
I1
I-5
tp640
I1
s(I6
I0
I-13
tp641
I1
s(I9
I0
I-1
tp642
I1
s(I8
I0
I-14
tp643
I1
s(I-4
I0
I-3
tp644
I1
s(I12
I0
I-4
tp645
I1
s(I3
I1
I-15
tp646
I1
s(I4
I2
I-7
tp647
I1
s(I-2
I0
I5
tp648
I1
s(I0
I3
I-5
tp649
I1
s(I2
I0
I-14
tp650
I1
s(I-1
I2
I-4
tp651
I1
s(I5
I1
I-15
tp652
I1
s(I-5
I1
I-4
tp653
I1
s(I7
I0
I-1
tp654
I1
s(I4
I0
I-10
tp655
I1
s(I8
I0
I-13
tp656
I1
s(I-3
I0
I-9
tp657
I1
s(I7
I0
I-3
tp658
I1
s(I2
I2
I-13
tp659
I1
s(I0
I3
I-1
tp660
I1
s(I3
I3
I-9
tp661
I1
s(I-1
I1
I-2
tp662
I1
s(I6
I1
I-8
tp663
I1
s(I1
I1
I-16
tp664
I1
s(I-8
I0
I-1
tp665
I1
s(I0
I0
I-3
tp666
I1
s(I-3
I2
I-3
tp667
I1
s(I-2
I0
I-1
tp668
I1
s(I-1
I2
I-12
tp669
I1
s(I0
I2
I4
tp670
I1
s(I-1
I3
I-4
tp671
I1
s(I1
I3
I-11
tp672
I1
s(I2
I1
I-7
tp673
I1
s(I-2
I0
I-3
tp674
I1
s(I-6
I0
I-15
tp675
I1
s(I2
I0
I2
tp676
I1
s(I0
I3
I-13
tp677
I1
s(I2
I3
I-4
tp678
I1
s(I-5
I1
I2
tp679
I1
s(I5
I1
I-7
tp680
I1
s(I1
I0
I-5
tp681
I1
s(I5
I3
I-8
tp682
I1
s(I-11
I0
I1
tp683
I1
s(I4
I0
I-2
tp684
I1
s(I0
I1
I-6
tp685
I1
s(I7
I0
I-11
tp686
I1
s(I-3
I1
I3
tp687
I1
s(I-1
I0
I-13
tp688
I1
s(I-9
I0
I0
tp689
I1
s(I6
I1
I-16
tp690
I1
s(I-2
I2
I0
tp691
I1
s(I-4
I1
I-1
tp692
I1
s(I1
I2
I-8
tp693
I1
s(I3
I0
I-6
tp694
I1
s(I4
I1
I-13
tp695
I1
s(I28
I0
I8
tp696
I1
s(I1
I3
I-3
tp697
I1
s(I0
I4
I-6
tp698
I1
s(I2
I1
I-15
tp699
I1
s(I5
I0
I-14
tp700
I1
s(I-5
I0
I-13
tp701
I1
s(I-3
I2
I-2
tp702
I1
s(I1
I3
I2
tp703
I1
s(I-6
I1
I-6
tp704
I1
s(I-4
I0
I1
tp705
I1
s(I-7
I1
I0
tp706
I1
s(I2
I3
I-12
tp707
I1
s(I3
I2
I-12
tp708
I1
s(I-1
I1
I-14
tp709
I1
s(I-4
I0
I-10
tp710
I1
s(I1
I0
I-13
tp711
I1
s(I-1
I2
I4
tp712
I1
s(I10
I0
I0
tp713
I1
s(I0
I1
I-14
tp714
I1
s(I3
I3
I0
tp715
I1
s(I-1
I0
I2
tp716
I1
s(I0
I1
I5
tp717
I1
s(I4
I0
I1
tp718
I1
s(I1
I0
I4
tp719
I1
s(I-9
I0
I-1
tp720
I1
s(I-2
I1
I-3
tp721
I1
s(I2
I2
I-5
tp722
I1
s(I28
I0
I0
tp723
I1
s(I4
I0
I-7
tp724
I1
s(I2
I0
I-3
tp725
I1
s(I-1
I0
I-16
tp726
I1
s(I5
I0
I-6
tp727
I1
s(I-1
I2
I-5
tp728
I1
s(I-1
I2
I-1
tp729
I1
s(I-2
I3
I-8
tp730
I1
s(I4
I1
I-7
tp731
I1
s(I-3
I3
I-1
tp732
I1
s(I0
I2
I-5
tp733
I1
s(I-4
I0
I-1
tp734
I1
s(I-1
I0
I0
tp735
I1
s(I3
I2
I-4
tp736
I1
s(I0
I0
I2
tp737
I1
s(I-7
I0
I4
tp738
I1
s(I-2
I2
I-9
tp739
I1
s(I-1
I0
I-14
tp740
I1
s(I-3
I0
I-13
tp741
I1
s(I7
I1
I-7
tp742
I1
s(I-3
I1
I-12
tp743
I1
s(I1
I4
I-1
tp744
I1
s(I3
I0
I-9
tp745
I1
s(I7
I0
I2
tp746
I1
s(I-5
I0
I-4
tp747
I1
s(I6
I0
I-6
tp748
I1
s(I1
I2
I-14
tp749
I1
s(I12
I0
I-5
tp750
I1
s(I3
I1
I-8
tp751
I1
s(I2
I0
I-11
tp752
I1
s(I-3
I1
I-1
tp753
I1
s(I-1
I3
I-3
tp754
I1
s(I-1
I0
I-7
tp755
I1
s(I-5
I0
I2
tp756
I1
s(I10
I0
I-14
tp757
I1
s(I8
I0
I-6
tp758
I1
s(I0
I2
I-13
tp759
I1
s(I2
I2
I-6
tp760
I1
s(I-1
I2
I-13
tp761
I1
s(I5
I2
I-7
tp762
I1
s(I1
I1
I-5
tp763
I1
s(I-5
I2
I-8
tp764
I1
s(I-1
I3
I-1
tp765
I1
s(I-1
I2
I3
tp766
I1
s(I0
I0
I-12
tp767
I1
s(I-1
I1
I5
tp768
I1
s(I-3
I0
I1
tp769
I1
s(I6
I0
I-14
tp770
I1
s(I2
I1
I-2
tp771
I1
s(I29
I0
I1
tp772
I1
s(I9
I0
I-2
tp773
I1
s(I-2
I1
I3
tp774
I1
s(I3
I0
I-1
tp775
I1
s(I2
I0
I5
tp776
I1
s(I3
I1
I-16
tp777
I1
s(I4
I2
I-8
tp778
I1
s(I-15
I0
I-2
tp779
I1
s(I0
I3
I-8
tp780
I1
s(I4
I0
I-8
tp781
I1
s(I4
I4
I-8
tp782
I1
s(I5
I1
I-16
tp783
I1
s(I-5
I1
I-5
tp784
I1
s(I-2
I3
I-4
tp785
I1
s(I4
I0
I-11
tp786
I1
s(I6
I0
I4
tp787
I1
s(I7
I0
I-2
tp788
I1
s(I2
I2
I-14
tp789
I1
s(I3
I3
I-10
tp790
I1
s(I-1
I1
I-10
tp791
I1
s(I6
I1
I-7
tp792
I1
s(I1
I1
I-13
tp793
I1
s(I8
I0
I-9
tp794
I1
s(I0
I0
I-4
tp795
I1
s(I3
I2
I0
tp796
I1
s(I-2
I1
I-14
tp797
I1
s(I3
I2
I-1
tp798
I1
s(I-1
I0
I-8
tp799
I1
s(I1
I3
I-12
tp800
I1
s(I-6
I0
I-1
tp801
I1
s(I2
I1
I-10
tp802
I1
s(I5
I2
I-9
tp803
I1
s(I5
I0
I2
tp804
I1
s(I-1
I2
I-6
tp805
I1
s(I-3
I0
I-6
tp806
I1
s(I28
I1
I0
tp807
I1
s(I3
I1
I-1
tp808
I1
s(I2
I3
I-3
tp809
I1
s(I9
I0
I-7
tp810
I1
s(I5
I1
I-8
tp811
I1
s(I1
I0
I-8
tp812
I1
s(I4
I0
I-3
tp813
I1
s(I0
I1
I-5
tp814
I1
s(I7
I0
I-10
tp815
I1
s(I-1
I2
I-7
tp816
I1
s(I3
I3
I-2
tp817
I1
s(I6
I1
I-15
tp818
I1
s(I-2
I0
I-10
tp819
I1
s(I-4
I1
I-13
tp820
I1
s(I5
I0
I-9
tp821
I1
s(I-3
I2
I-10
tp822
I1
s(I-14
I0
I-1
tp823
I1
s(I-7
I1
I-2
tp824
I1
s(I-6
I1
I2
tp825
I1
s(I1
I3
I-4
tp826
I1
s(I-2
I0
I3
tp827
I1
s(I3
I3
I-1
tp828
I1
s(I5
I0
I-13
tp829
I1
s(I-5
I0
I-12
tp830
I1
s(I-1
I1
I0
tp831
I1
s(I1
I3
I1
tp832
I1
s(I-6
I1
I-5
tp833
I1
s(I2
I3
I-11
tp834
I1
s(I3
I2
I-11
tp835
I1
s(I1
I0
I-16
tp836
I1
s(I-2
I2
I-2
tp837
I1
s(I10
I0
I-2
tp838
I1
s(I0
I1
I-13
tp839
I1
s(I-4
I1
I-9
tp840
I1
s(I3
I0
I-16
tp841
I1
s(I-12
I0
I-4
tp842
I1
s(I0
I1
I6
tp843
I1
s(I-7
I0
I-2
tp844
I1
s(I4
I0
I0
tp845
I1
s(I-5
I2
I-4
tp846
I1
s(I1
I0
I5
tp847
I1
s(I5
I1
I1
tp848
I1
s(I7
I1
I-10
tp849
I1
s(I-1
I3
I-6
tp850
I1
s(I-13
I0
I-1
tp851
I1
s(I-1
I0
I-1
tp852
I1
s(I-6
I0
I4
tp853
I1
s(I-4
I2
I-7
tp854
I1
s(I2
I0
I-4
tp855
I1
s(I5
I0
I-5
tp856
I1
s(I-1
I1
I7
tp857
I1
s(I-2
I3
I-7
tp858
I1
s(I-2
I3
I-3
tp859
I1
s(I30
I2
I0
tp860
I1
s(I4
I1
I-6
tp861
I1
s(I0
I2
I-6
tp862
I1
s(I-3
I0
I6
tp863
I1
s(I-4
I1
I-8
tp864
I1
s(I3
I2
I-3
tp865
I1
s(I0
I0
I1
tp866
I1
s(I-6
I0
I2
tp867
I1
s(I-2
I2
I-10
tp868
I1
s(I7
I1
I-8
tp869
I1
s(I-3
I1
I-9
tp870
I1
s(I6
I0
I-9
tp871
I1
s(I2
I2
I3
tp872
I1
s(I7
I0
I3
tp873
I1
s(I-2
I1
I-6
tp874
I1
s(I6
I0
I-3
tp875
I1
s(I1
I2
I-13
tp876
I1
s(I-7
I1
I-1
tp877
I1
s(I9
I0
I-9
tp878
I1
s(I-3
I3
I-8
tp879
I1
s(I-4
I2
I-5
tp880
I1
s(I3
I1
I-9
tp881
I1
s(I4
I2
I-13
tp882
I1
s(I4
I2
I1
tp883
I1
s(I2
I0
I-12
tp884
I1
s(I-4
I0
I-4
tp885
I1
s(I-7
I0
I3
tp886
I1
s(I-3
I2
I-1
tp887
I1
s(I8
I0
I-7
tp888
I1
s(I-3
I0
I-10
tp889
I1
s(I0
I2
I-14
tp890
I1
s(I3
I0
I2
tp891
I1
s(I-5
I0
I-5
tp892
I1
s(I0
I0
I9
tp893
I1
s(I1
I1
I-6
tp894
I1
s(I-10
I0
I-4
tp895
I1
s(I1
I1
I6
tp896
I1
s(I-5
I2
I0
tp897
I1
s(I5
I2
I0
tp898
I1
s(I-1
I2
I-11
tp899
I1
s(I-4
I2
I-1
tp900
I1
s(I6
I0
I-11
tp901
I1
s(I-1
I3
I1
tp902
I1
s(I-2
I0
I-6
tp903
I1
s(I-9
I0
I1
tp904
I1
s(I-5
I2
I-1
tp905
I1
s(I2
I0
I4
tp906
I1
s(I4
I2
I-5
tp907
I1
s(I0
I3
I-7
tp908
I1
s(I-2
I0
I7
tp909
I1
s(I5
I1
I-13
tp910
I1
s(I-5
I1
I-6
tp911
I1
s(I-16
I0
I0
tp912
I1
s(I4
I0
I-12
tp913
I1
s(I-6
I0
I-5
tp914
I1
s(I-7
I0
I1
tp915
I1
s(I2
I2
I-15
tp916
I1
s(I3
I3
I-7
tp917
I1
s(I-2
I0
I6
tp918
I1
s(I6
I1
I-2
tp919
I1
s(I1
I1
I-14
tp920
I1
s(I-9
I0
I-2
tp921
I1
s(I-13
I0
I0
tp922
I1
s(I-1
I0
I3
tp923
I1
s(I0
I0
I-5
tp924
I1
s(I3
I2
I1
tp925
I1
s(I4
I1
I-14
tp926
I1
s(I-11
I0
I-2
tp927
I1
s(I4
I1
I0
tp928
I1
s(I2
I1
I-9
tp929
I1
s(I5
I0
I3
tp930
I1
s(I4
I0
I-1
tp931
I1
s(I-2
I3
I-2
tp932
I1
s(I-2
I3
I-1
tp933
I1
s(I-6
I0
I0
tp934
I1
s(I2
I3
I-2
tp935
I1
s(I3
I2
I-14
tp936
I1
s(I5
I1
I-5
tp937
I1
s(I-4
I0
I-9
tp938
I1
s(I1
I0
I-7
tp939
I1
s(I-1
I1
I-11
tp940
I1
s(I4
I0
I-4
tp941
I1
s(I0
I1
I-4
tp942
I1
s(I7
I0
I-9
tp943
I1
s(I6
I1
I-10
tp944
I1
s(I1
I0
I2
tp945
I1
s(I-6
I0
I-8
tp946
I1
s(I-3
I2
I-9
tp947
I1
s(I-2
I1
I-5
tp948
I1
s(I4
I3
I-8
tp949
I1
s(I-2
I1
I-2
tp950
I1
s(I1
I3
I-5
tp951
I1
s(I4
I0
I-6
tp952
I1
s(I-8
I0
I-2
tp953
I1
s(I5
I0
I-16
tp954
I1
s(I-5
I0
I-11
tp955
I1
s(I-4
I0
I-13
tp956
I1
s(I-4
I2
I-9
tp957
I1
s(I1
I3
I0
tp958
I1
s(I-6
I1
I-8
tp959
I1
s(I-2
I2
I-1
tp960
I1
s(I2
I3
I-10
tp961
I1
s(I3
I2
I-6
tp962
I1
s(I1
I0
I-15
tp963
I1
s(I-2
I2
I-3
tp964
I1
s(I-2
I0
I-13
tp965
I1
s(I-10
I0
I-2
tp966
I1
s(I-3
I0
I-14
tp967
I1
s(I0
I1
I-12
tp968
I1
s(I-3
I1
I-2
tp969
I1
s(I3
I0
I-15
tp970
I1
s(I-7
I0
I-6
tp971
I1
s(I0
I1
I7
tp972
I1
s(I-4
I1
I-4
tp973
I1
s(I1
I2
I-4
tp974
I1
s(I6
I1
I-9
tp975
I1
s(I5
I1
I0
tp976
I1
s(I3
I1
I-2
tp977
I1
s(I0
I3
I2
tp978
I1
s(I-5
I0
I-6
tp979
I1
s(I-2
I0
I-2
tp980
I1
s(I5
I0
I-8
tp981
I1
s(I-4
I1
I0
tp982
I1
s(I2
I1
I4
tp983
I1
s(I4
I1
I-5
tp984
I1
s(I0
I2
I-3
tp985
I1
s(I0
I0
I0
tp986
I1
s(I-5
I2
I-5
tp987
I1
s(I-2
I2
I-11
tp988
I1
s(I1
I1
I1
tp989
I1
s(I-2
I2
I4
tp990
I1
s(I-2
I0
I2
tp991
I1
s(I-3
I1
I-10
tp992
I1
s(I3
I0
I-7
tp993
I1
s(I6
I0
I-4
tp994
I1
s(I1
I2
I-12
tp995
I1
s(I1
I2
I-5
tp996
I1
s(I-5
I1
I1
tp997
I1
s(I-2
I1
I2
tp998
I1
s(I-3
I0
I3
tp999
I1
s(I-5
I1
I-9
tp1000
I1
s(I3
I1
I-10
tp1001
I1
s(I-16
I4
I-4
tp1002
I1
s(I4
I2
I0
tp1003
I1
s(I2
I0
I-9
tp1004
I1
s(I-3
I0
I4
tp1005
I1
s(I-1
I4
I0
tp1006
I1
ssb.