(i__main__
LoadStruct
p0
(dp1
S'playerpos'
p2
(ivec
Vec3
p3
(dp4
S'y'
p5
F12.989437792491771
sS'x'
p6
F9.0941789663942636
sS'z'
p7
F3.7506170324826926
sbsS'playeraimyaw'
p8
F-7.919999999999682
sS'playeraimpitch'
p9
F-38.127500000002939
sS'space'
p10
(dp11
(I-1
I1
I0
tp12
I2
s(I-5
I11
I1
tp13
I1
s(I4
I2
I2
tp14
I1
s(I-4
I1
I2
tp15
I1
s(I-5
I12
I1
tp16
I2
s(I3
I0
I3
tp17
I1
s(I-3
I3
I1
tp18
I2
s(I-3
I0
I4
tp19
I1
s(I-3
I0
I1
tp20
I1
s(I-4
I11
I0
tp21
I1
s(I1
I1
I-3
tp22
I2
s(I-1
I0
I1
tp23
I1
s(I-3
I0
I3
tp24
I1
s(I-2
I3
I0
tp25
I3
s(I1
I-2
I-2
tp26
I1
s(I1
I4
I2
tp27
I3
s(I-2
I1
I3
tp28
I1
s(I3
I-1
I-3
tp29
I1
s(I3
I-1
I0
tp30
I1
s(I0
I2
I1
tp31
I2
s(I-5
I0
I3
tp32
I1
s(I-2
I0
I2
tp33
I1
s(I3
I-1
I-1
tp34
I1
s(I-2
I3
I2
tp35
I2
s(I-4
I13
I0
tp36
I3
s(I-5
I0
I0
tp37
I1
s(I0
I2
I3
tp38
I2
s(I3
I-2
I-3
tp39
I1
s(I-2
I2
I3
tp40
I2
s(I-7
I3
I2
tp41
I3
s(I-2
I3
I4
tp42
I3
s(I3
I1
I4
tp43
I2
s(I3
I2
I2
tp44
I1
s(I2
I0
I1
tp45
I1
s(I-3
I12
I1
tp46
I2
s(I1
I2
I0
tp47
I3
s(I3
I1
I2
tp48
I1
s(I3
I2
I0
tp49
I3
s(I-3
I1
I4
tp50
I2
s(I2
I2
I4
tp51
I2
s(I2
I0
I3
tp52
I1
s(I2
I3
I4
tp53
I3
s(I-5
I0
I4
tp54
I1
s(I-4
I0
I1
tp55
I1
s(I3
I0
I0
tp56
I1
s(I1
I-2
I-3
tp57
I1
s(I-4
I3
I1
tp58
I3
s(I2
I-1
I-3
tp59
I1
s(I5
I0
I2
tp60
I1
s(I-5
I3
I2
tp61
I3
s(I-2
I4
I2
tp62
I3
s(I4
I1
I1
tp63
I2
s(I-1
I2
I3
tp64
I2
s(I-1
I0
I0
tp65
I1
s(I-1
I1
I3
tp66
I1
s(I-3
I4
I2
tp67
I3
s(I-3
I3
I0
tp68
I3
s(I3
I2
I4
tp69
I2
s(I-3
I1
I0
tp70
I2
s(I3
I0
I-2
tp71
I1
s(I0
I4
I2
tp72
I3
s(I4
I1
I3
tp73
I1
s(I-2
I2
I1
tp74
I1
s(I3
I0
I-1
tp75
I1
s(I-1
I1
I1
tp76
I1
s(I1
I2
I-1
tp77
I3
s(I-3
I1
I2
tp78
I1
s(I-1
I2
I2
tp79
I1
s(I1
I0
I-2
tp80
I1
s(I-4
I12
I1
tp81
I2
s(I0
I1
I0
tp82
I2
s(I2
I3
I3
tp83
I3
s(I1
I3
I3
tp84
I3
s(I4
I3
I4
tp85
I3
s(I1
I0
I3
tp86
I1
s(I-1
I2
I0
tp87
I3
s(I-1
I3
I2
tp88
I2
s(I0
I1
I2
tp89
I1
s(I-3
I13
I0
tp90
I2
s(I-4
I0
I4
tp91
I1
s(I1
I3
I1
tp92
I3
s(I4
I3
I2
tp93
I2
s(I1
I0
I1
tp94
I1
s(I3
I3
I1
tp95
I3
s(I1
I0
I-1
tp96
I1
s(I0
I1
I4
tp97
I2
s(I-2
I3
I1
tp98
I2
s(I4
I0
I2
tp99
I1
s(I-2
I1
I1
tp100
I1
s(I-4
I2
I0
tp101
I3
s(I3
I3
I3
tp102
I3
s(I-5
I0
I1
tp103
I1
s(I2
I3
I2
tp104
I2
s(I-4
I4
I2
tp105
I3
s(I4
I0
I0
tp106
I1
s(I-4
I2
I2
tp107
I1
s(I2
I-3
I-1
tp108
I1
s(I2
I4
I2
tp109
I3
s(I1
I2
I-3
tp110
I3
s(I-2
I0
I0
tp111
I1
s(I-2
I3
I3
tp112
I3
s(I-3
I2
I1
tp113
I1
s(I0
I0
I3
tp114
I1
s(I3
I1
I-3
tp115
I2
s(I0
I3
I3
tp116
I3
s(I4
I0
I4
tp117
I1
s(I3
I0
I-3
tp118
I1
s(I-2
I2
I2
tp119
I1
s(I-1
I0
I2
tp120
I1
s(I1
I-1
I0
tp121
I1
s(I-3
I2
I3
tp122
I2
s(I0
I0
I1
tp123
I1
s(I0
I3
I1
tp124
I3
s(I-3
I11
I1
tp125
I1
s(I1
I1
I-2
tp126
I2
s(I-2
I0
I4
tp127
I1
s(I-5
I1
I4
tp128
I2
s(I3
I-2
I0
tp129
I1
s(I-5
I2
I2
tp130
I2
s(I2
I1
I3
tp131
I1
s(I1
I1
I0
tp132
I2
s(I1
I2
I3
tp133
I2
s(I-5
I1
I2
tp134
I1
s(I-5
I2
I0
tp135
I2
s(I-1
I1
I4
tp136
I2
s(I2
I1
I1
tp137
I1
s(I1
I-2
I0
tp138
I1
s(I4
I2
I1
tp139
I2
s(I1
I1
I2
tp140
I1
s(I-4
I3
I4
tp141
I3
s(I3
I-2
I-1
tp142
I1
s(I-5
I1
I0
tp143
I1
s(I3
I-3
I-1
tp144
I1
s(I-3
I0
I2
tp145
I1
s(I1
I2
I4
tp146
I2
s(I4
I2
I3
tp147
I2
s(I1
I1
I4
tp148
I2
s(I-5
I12
I0
tp149
I2
s(I-1
I0
I4
tp150
I1
s(I3
I0
I2
tp151
I1
s(I-3
I3
I2
tp152
I2
s(I-1
I2
I1
tp153
I2
s(I-3
I0
I0
tp154
I1
s(I-4
I2
I4
tp155
I2
s(I-5
I11
I0
tp156
I1
s(I-2
I0
I3
tp157
I1
s(I-4
I1
I3
tp158
I1
s(I3
I0
I4
tp159
I1
s(I3
I-3
I0
tp160
I1
s(I-4
I11
I1
tp161
I1
s(I1
I-3
I0
tp162
I1
s(I-1
I3
I1
tp163
I3
s(I2
I2
I-3
tp164
I3
s(I2
I2
I3
tp165
I2
s(I1
I3
I2
tp166
I2
s(I0
I2
I0
tp167
I3
s(I-3
I12
I2
tp168
I2
s(I1
I1
I-1
tp169
I2
s(I-3
I4
I1
tp170
I3
s(I-1
I3
I3
tp171
I3
s(I1
I-1
I-3
tp172
I1
s(I-4
I13
I1
tp173
I3
s(I-3
I3
I4
tp174
I3
s(I0
I2
I2
tp175
I1
s(I-3
I12
I0
tp176
I1
s(I1
I-1
I-1
tp177
I1
s(I4
I1
I4
tp178
I2
s(I-4
I3
I2
tp179
I2
s(I-4
I12
I-1
tp180
I2
s(I3
I2
I3
tp181
I2
s(I-5
I3
I1
tp182
I3
s(I0
I2
I4
tp183
I2
s(I-4
I0
I2
tp184
I1
s(I3
I1
I1
tp185
I1
s(I3
I1
I3
tp186
I1
s(I3
I2
I1
tp187
I2
s(I-5
I3
I3
tp188
I3
s(I2
I0
I2
tp189
I1
s(I-6
I3
I2
tp190
I3
s(I-1
I2
I4
tp191
I2
s(I4
I1
I0
tp192
I2
s(I-2
I2
I4
tp193
I2
s(I-2
I1
I2
tp194
I1
s(I0
I0
I4
tp195
I1
s(I5
I0
I3
tp196
I1
s(I-3
I1
I1
tp197
I1
s(I-2
I11
I2
tp198
I1
s(I2
I1
I0
tp199
I2
s(I1
I1
I1
tp200
I1
s(I4
I1
I2
tp201
I1
s(I-4
I0
I3
tp202
I1
s(I-2
I1
I0
tp203
I2
s(I-3
I4
I3
tp204
I3
s(I-1
I4
I2
tp205
I3
s(I-3
I1
I3
tp206
I1
s(I-4
I5
I2
tp207
I3
s(I-2
I2
I0
tp208
I2
s(I-5
I4
I1
tp209
I3
s(I2
I2
I1
tp210
I2
s(I-3
I2
I0
tp211
I2
s(I1
I3
I4
tp212
I3
s(I1
I0
I2
tp213
I1
s(I-4
I12
I0
tp214
I2
s(I-2
I1
I4
tp215
I2
s(I-5
I2
I4
tp216
I3
s(I0
I1
I1
tp217
I1
s(I-3
I13
I1
tp218
I3
s(I1
I0
I-3
tp219
I1
s(I2
I-3
I-2
tp220
I1
s(I3
I2
I-3
tp221
I3
s(I-5
I3
I0
tp222
I3
s(I1
I-1
I-2
tp223
I1
s(I-3
I13
I2
tp224
I3
s(I-4
I3
I3
tp225
I3
s(I0
I1
I3
tp226
I1
s(I4
I0
I3
tp227
I1
s(I2
I-1
I0
tp228
I1
s(I4
I3
I3
tp229
I3
s(I-4
I2
I1
tp230
I2
s(I-4
I3
I0
tp231
I3
s(I-3
I2
I4
tp232
I2
s(I2
I2
I0
tp233
I3
s(I-5
I2
I1
tp234
I2
s(I2
I0
I4
tp235
I1
s(I-4
I4
I3
tp236
I3
s(I1
I-3
I-1
tp237
I1
s(I4
I0
I1
tp238
I1
s(I4
I3
I1
tp239
I3
s(I-4
I2
I3
tp240
I2
s(I1
I-2
I-1
tp241
I1
s(I3
I3
I2
tp242
I2
s(I-5
I0
I2
tp243
I1
s(I3
I4
I2
tp244
I3
s(I2
I-3
I-3
tp245
I1
s(I-4
I4
I1
tp246
I3
s(I3
I-1
I-2
tp247
I1
s(I1
I2
I1
tp248
I2
s(I2
I3
I1
tp249
I3
s(I2
I0
I0
tp250
I1
s(I1
I2
I2
tp251
I1
s(I-2
I0
I1
tp252
I1
s(I3
I3
I4
tp253
I3
s(I3
I2
I-1
tp254
I3
s(I3
I2
I-2
tp255
I3
s(I3
I1
I-2
tp256
I2
s(I0
I3
I2
tp257
I2
s(I-1
I3
I4
tp258
I3
s(I1
I2
I-2
tp259
I3
s(I3
I-3
I-2
tp260
I1
s(I-1
I0
I3
tp261
I1
s(I2
I-2
I-3
tp262
I1
s(I1
I0
I0
tp263
I1
s(I3
I1
I0
tp264
I2
s(I-3
I2
I2
tp265
I1
s(I0
I0
I2
tp266
I1
s(I2
I1
I4
tp267
I2
s(I-3
I11
I2
tp268
I1
s(I3
I1
I-1
tp269
I2
s(I2
I1
I-3
tp270
I2
s(I3
I-2
I-2
tp271
I1
s(I1
I-3
I-3
tp272
I1
s(I1
I-3
I-2
tp273
I1
s(I0
I0
I0
tp274
I1
s(I-4
I13
I-1
tp275
I3
s(I2
I1
I2
tp276
I1
s(I-3
I11
I0
tp277
I1
s(I4
I2
I4
tp278
I2
s(I-4
I1
I4
tp279
I2
s(I-4
I0
I0
tp280
I1
s(I-5
I1
I3
tp281
I1
s(I1
I0
I4
tp282
I1
s(I2
I2
I2
tp283
I1
s(I-3
I14
I0
tp284
I3
s(I0
I3
I4
tp285
I3
s(I2
I0
I-3
tp286
I1
s(I1
I1
I3
tp287
I1
s(I-4
I11
I-1
tp288
I1
s(I2
I-3
I0
tp289
I1
s(I-5
I1
I1
tp290
I1
s(I-1
I1
I2
tp291
I1
s(I-4
I1
I1
tp292
I1
s(I-5
I2
I3
tp293
I2
s(I4
I2
I0
tp294
I3
s(I-4
I1
I0
tp295
I2
s(I3
I0
I1
tp296
I1
s(I-3
I3
I3
tp297
I3
s(I2
I-2
I0
tp298
I1
s(I3
I-3
I-3
tp299
I1
s(I4
I4
I2
tp300
I3
ssb.