(i__main__
LoadStruct
p0
(dp1
S'playerpos'
p2
(ivec
Vec3
p3
(dp4
S'y'
p5
F7.513313570063902
sS'x'
p6
F5.19672985084981
sS'z'
p7
F-3.7297997808529746
sbsS'playeraimyaw'
p8
F-7.305000000000019
sS'playeraimpitch'
p9
F-38.200000000002774
sS'space'
p10
(dp11
(I-4
I1
I-1
tp12
I2
s(I-2
I1
I0
tp13
I2
s(I-5
I11
I1
tp14
I1
s(I4
I2
I2
tp15
I1
s(I-4
I1
I2
tp16
I1
s(I-5
I12
I1
tp17
I2
s(I3
I0
I3
tp18
I1
s(I-3
I3
I1
tp19
I2
s(I-3
I0
I1
tp20
I1
s(I-4
I11
I0
tp21
I1
s(I1
I1
I-3
tp22
I2
s(I-2
I0
I1
tp23
I1
s(I-2
I3
I0
tp24
I3
s(I-4
I1
I1
tp25
I1
s(I1
I-2
I-1
tp26
I1
s(I1
I4
I2
tp27
I3
s(I-2
I1
I3
tp28
I1
s(I3
I-1
I-3
tp29
I1
s(I3
I0
I-1
tp30
I1
s(I0
I2
I1
tp31
I2
s(I2
I4
I2
tp32
I3
s(I3
I-2
I-2
tp33
I1
s(I-2
I3
I2
tp34
I2
s(I-4
I13
I0
tp35
I3
s(I-4
I2
I-2
tp36
I2
s(I0
I2
I3
tp37
I2
s(I-5
I1
I-2
tp38
I2
s(I3
I-2
I-3
tp39
I1
s(I-2
I2
I3
tp40
I2
s(I-7
I3
I2
tp41
I3
s(I-2
I3
I4
tp42
I3
s(I3
I1
I4
tp43
I2
s(I3
I2
I2
tp44
I1
s(I0
I1
I-2
tp45
I2
s(I2
I0
I1
tp46
I1
s(I-3
I12
I1
tp47
I2
s(I1
I2
I0
tp48
I3
s(I3
I1
I2
tp49
I1
s(I2
I2
I1
tp50
I2
s(I-1
I1
I-1
tp51
I2
s(I3
I2
I0
tp52
I3
s(I-3
I1
I4
tp53
I2
s(I2
I2
I4
tp54
I2
s(I2
I0
I3
tp55
I1
s(I-3
I2
I0
tp56
I2
s(I2
I0
I4
tp57
I1
s(I-3
I4
I3
tp58
I3
s(I-4
I0
I1
tp59
I1
s(I3
I-2
I-1
tp60
I1
s(I-3
I1
I-2
tp61
I2
s(I-4
I3
I1
tp62
I3
s(I2
I-2
I-3
tp63
I1
s(I5
I0
I2
tp64
I1
s(I-5
I3
I2
tp65
I3
s(I-4
I0
I3
tp66
I1
s(I4
I1
I1
tp67
I2
s(I-1
I2
I3
tp68
I2
s(I-2
I0
I0
tp69
I1
s(I-1
I1
I3
tp70
I1
s(I-3
I4
I2
tp71
I3
s(I3
I-3
I0
tp72
I1
s(I3
I2
I4
tp73
I2
s(I-3
I1
I0
tp74
I2
s(I3
I-2
I0
tp75
I1
s(I0
I4
I2
tp76
I3
s(I4
I1
I3
tp77
I1
s(I-2
I2
I1
tp78
I1
s(I3
I0
I-2
tp79
I1
s(I-1
I1
I1
tp80
I1
s(I-4
I2
I4
tp81
I2
s(I1
I2
I-2
tp82
I3
s(I-3
I1
I2
tp83
I1
s(I1
I0
I-1
tp84
I1
s(I-4
I0
I0
tp85
I1
s(I-4
I5
I2
tp86
I3
s(I-4
I12
I1
tp87
I2
s(I0
I1
I-3
tp88
I2
s(I-5
I2
I-2
tp89
I2
s(I-5
I3
I-2
tp90
I3
s(I-4
I1
I-2
tp91
I2
s(I0
I1
I0
tp92
I2
s(I2
I-3
I-3
tp93
I1
s(I1
I3
I3
tp94
I3
s(I4
I3
I4
tp95
I3
s(I1
I-2
I-3
tp96
I1
s(I-1
I2
I0
tp97
I3
s(I0
I3
I3
tp98
I3
s(I0
I1
I2
tp99
I1
s(I-3
I13
I0
tp100
I2
s(I1
I3
I1
tp101
I3
s(I2
I-2
I0
tp102
I1
s(I4
I3
I2
tp103
I2
s(I1
I0
I1
tp104
I1
s(I3
I3
I1
tp105
I3
s(I-5
I3
I-1
tp106
I3
s(I1
I0
I-2
tp107
I1
s(I0
I1
I4
tp108
I2
s(I-1
I3
I1
tp109
I3
s(I4
I0
I2
tp110
I1
s(I-2
I1
I1
tp111
I1
s(I-4
I2
I0
tp112
I3
s(I3
I3
I3
tp113
I3
s(I-5
I0
I1
tp114
I1
s(I2
I3
I2
tp115
I2
s(I-4
I4
I2
tp116
I3
s(I4
I0
I0
tp117
I1
s(I-4
I2
I2
tp118
I1
s(I2
I-3
I-2
tp119
I1
s(I-5
I0
I3
tp120
I1
s(I-4
I3
I-2
tp121
I3
s(I-3
I2
I-1
tp122
I3
s(I1
I2
I-3
tp123
I3
s(I-1
I0
I0
tp124
I1
s(I-1
I3
I3
tp125
I3
s(I-3
I2
I1
tp126
I1
s(I0
I0
I3
tp127
I1
s(I3
I1
I-3
tp128
I2
s(I-1
I3
I2
tp129
I2
s(I4
I0
I4
tp130
I1
s(I-2
I2
I2
tp131
I1
s(I-2
I0
I2
tp132
I1
s(I1
I-2
I0
tp133
I1
s(I-3
I2
I3
tp134
I2
s(I0
I0
I1
tp135
I1
s(I-3
I2
I-2
tp136
I3
s(I0
I3
I1
tp137
I3
s(I-3
I11
I1
tp138
I1
s(I1
I1
I-1
tp139
I2
s(I-2
I0
I4
tp140
I1
s(I-5
I1
I4
tp141
I2
s(I-3
I0
I0
tp142
I1
s(I-5
I2
I2
tp143
I2
s(I2
I3
I4
tp144
I3
s(I1
I1
I0
tp145
I2
s(I0
I2
I-1
tp146
I3
s(I-5
I1
I2
tp147
I1
s(I-3
I0
I4
tp148
I1
s(I-2
I1
I4
tp149
I2
s(I2
I1
I1
tp150
I1
s(I1
I-1
I0
tp151
I1
s(I4
I2
I1
tp152
I2
s(I1
I1
I2
tp153
I1
s(I3
I1
I-1
tp154
I2
s(I3
I0
I0
tp155
I1
s(I-5
I1
I0
tp156
I1
s(I3
I-3
I-1
tp157
I1
s(I-3
I0
I2
tp158
I1
s(I1
I2
I4
tp159
I2
s(I4
I4
I2
tp160
I3
s(I4
I2
I3
tp161
I2
s(I1
I1
I4
tp162
I2
s(I-5
I12
I0
tp163
I2
s(I-1
I0
I4
tp164
I1
s(I3
I0
I2
tp165
I1
s(I-3
I3
I2
tp166
I2
s(I-5
I1
I-1
tp167
I2
s(I3
I-1
I0
tp168
I1
s(I1
I0
I3
tp169
I1
s(I-5
I11
I0
tp170
I1
s(I-1
I0
I3
tp171
I1
s(I-4
I1
I3
tp172
I1
s(I3
I0
I4
tp173
I1
s(I-3
I3
I0
tp174
I3
s(I-4
I1
I4
tp175
I2
s(I-3
I1
I-1
tp176
I2
s(I-4
I11
I1
tp177
I1
s(I-1
I1
I-3
tp178
I2
s(I1
I-3
I0
tp179
I1
s(I-2
I3
I1
tp180
I2
s(I0
I2
I2
tp181
I1
s(I2
I2
I-3
tp182
I3
s(I2
I2
I3
tp183
I2
s(I-5
I2
I-1
tp184
I2
s(I1
I3
I2
tp185
I2
s(I0
I2
I0
tp186
I3
s(I-3
I12
I2
tp187
I2
s(I1
I1
I-2
tp188
I2
s(I-2
I3
I3
tp189
I3
s(I-4
I3
I4
tp190
I3
s(I-4
I13
I1
tp191
I3
s(I-3
I3
I4
tp192
I3
s(I-1
I1
I-2
tp193
I2
s(I2
I1
I3
tp194
I1
s(I-3
I12
I0
tp195
I1
s(I1
I-1
I-1
tp196
I1
s(I4
I1
I4
tp197
I2
s(I-1
I2
I-3
tp198
I3
s(I-5
I1
I3
tp199
I1
s(I-4
I3
I2
tp200
I2
s(I-4
I12
I-1
tp201
I2
s(I0
I1
I-1
tp202
I2
s(I3
I2
I3
tp203
I2
s(I-5
I3
I1
tp204
I3
s(I-1
I4
I2
tp205
I3
s(I0
I2
I4
tp206
I2
s(I-4
I0
I2
tp207
I1
s(I3
I1
I1
tp208
I1
s(I3
I1
I3
tp209
I1
s(I3
I2
I1
tp210
I2
s(I-5
I3
I3
tp211
I3
s(I2
I0
I2
tp212
I1
s(I-6
I3
I2
tp213
I3
s(I4
I1
I0
tp214
I2
s(I1
I2
I3
tp215
I2
s(I-2
I1
I2
tp216
I1
s(I0
I2
I-2
tp217
I3
s(I5
I0
I3
tp218
I1
s(I-3
I1
I1
tp219
I1
s(I-2
I11
I2
tp220
I1
s(I0
I3
I4
tp221
I3
s(I-2
I2
I-2
tp222
I3
s(I4
I1
I2
tp223
I1
s(I-1
I2
I2
tp224
I1
s(I-1
I1
I0
tp225
I2
s(I-1
I2
I1
tp226
I2
s(I-2
I1
I-1
tp227
I2
s(I-2
I4
I2
tp228
I3
s(I-3
I1
I3
tp229
I1
s(I-4
I2
I-1
tp230
I3
s(I1
I-1
I-3
tp231
I1
s(I-4
I0
I4
tp232
I1
s(I-2
I4
I1
tp233
I3
s(I4
I0
I3
tp234
I1
s(I-3
I4
I1
tp235
I3
s(I3
I2
I-2
tp236
I3
s(I-5
I2
I0
tp237
I2
s(I-2
I1
I-2
tp238
I2
s(I3
I2
I-1
tp239
I3
s(I1
I3
I4
tp240
I3
s(I1
I0
I2
tp241
I1
s(I-4
I12
I0
tp242
I2
s(I-1
I1
I4
tp243
I2
s(I-5
I2
I4
tp244
I3
s(I0
I1
I1
tp245
I1
s(I-3
I13
I1
tp246
I3
s(I1
I0
I-3
tp247
I1
s(I2
I-3
I-1
tp248
I1
s(I3
I2
I-3
tp249
I3
s(I-5
I3
I0
tp250
I3
s(I1
I-2
I-2
tp251
I1
s(I-3
I13
I2
tp252
I3
s(I-4
I3
I3
tp253
I3
s(I0
I1
I3
tp254
I1
s(I-2
I2
I4
tp255
I2
s(I2
I-1
I0
tp256
I1
s(I4
I3
I3
tp257
I3
s(I-4
I2
I1
tp258
I2
s(I-1
I2
I-1
tp259
I3
s(I-4
I3
I0
tp260
I3
s(I-5
I0
I0
tp261
I1
s(I2
I2
I0
tp262
I3
s(I-5
I2
I1
tp263
I2
s(I-3
I2
I4
tp264
I2
s(I-4
I4
I3
tp265
I3
s(I1
I-3
I-1
tp266
I1
s(I2
I-1
I-3
tp267
I1
s(I4
I3
I1
tp268
I3
s(I-4
I2
I3
tp269
I2
s(I1
I0
I0
tp270
I1
s(I3
I3
I2
tp271
I2
s(I-5
I0
I2
tp272
I1
s(I3
I4
I2
tp273
I3
s(I-2
I2
I-1
tp274
I3
s(I2
I3
I3
tp275
I3
s(I-4
I4
I1
tp276
I3
s(I3
I-1
I-1
tp277
I1
s(I1
I2
I1
tp278
I2
s(I2
I3
I1
tp279
I3
s(I2
I0
I0
tp280
I1
s(I1
I2
I2
tp281
I1
s(I-1
I0
I1
tp282
I1
s(I3
I3
I4
tp283
I3
s(I-5
I0
I4
tp284
I1
s(I0
I0
I4
tp285
I1
s(I-1
I2
I-2
tp286
I3
s(I3
I1
I-2
tp287
I2
s(I0
I3
I2
tp288
I2
s(I-1
I3
I4
tp289
I3
s(I1
I2
I-1
tp290
I3
s(I3
I-3
I-2
tp291
I1
s(I-2
I0
I3
tp292
I1
s(I4
I0
I1
tp293
I1
s(I1
I-1
I-2
tp294
I1
s(I3
I1
I0
tp295
I2
s(I-3
I2
I2
tp296
I1
s(I0
I0
I2
tp297
I1
s(I2
I1
I4
tp298
I2
s(I-3
I11
I2
tp299
I1
s(I2
I1
I-3
tp300
I2
s(I3
I-1
I-2
tp301
I1
s(I0
I2
I-3
tp302
I3
s(I1
I-3
I-3
tp303
I1
s(I1
I-3
I-2
tp304
I1
s(I0
I0
I0
tp305
I1
s(I-4
I13
I-1
tp306
I3
s(I-5
I4
I1
tp307
I3
s(I2
I1
I2
tp308
I1
s(I-3
I11
I0
tp309
I1
s(I4
I2
I4
tp310
I2
s(I1
I1
I1
tp311
I1
s(I-1
I2
I4
tp312
I2
s(I-1
I0
I2
tp313
I1
s(I1
I0
I4
tp314
I1
s(I2
I2
I2
tp315
I1
s(I-3
I14
I0
tp316
I3
s(I2
I1
I0
tp317
I2
s(I2
I0
I-3
tp318
I1
s(I1
I1
I3
tp319
I1
s(I-4
I11
I-1
tp320
I1
s(I2
I-3
I0
tp321
I1
s(I-5
I1
I1
tp322
I1
s(I-1
I1
I2
tp323
I1
s(I3
I0
I-3
tp324
I1
s(I-5
I2
I3
tp325
I2
s(I4
I2
I0
tp326
I3
s(I-4
I1
I0
tp327
I2
s(I3
I0
I1
tp328
I1
s(I-3
I3
I3
tp329
I3
s(I-2
I2
I0
tp330
I2
s(I3
I-3
I-3
tp331
I1
s(I-3
I0
I3
tp332
I1
ssb.