(i__main__
LoadStruct
p0
(dp1
S'playerpos'
p2
(ivec
Vec3
p3
(dp4
S'y'
p5
F10.23711691570048
sS'x'
p6
F9.296224444232697
sS'z'
p7
F3.6191310343585643
sbsS'playeraimyaw'
p8
F-2.1975000000005855
sS'playeraimpitch'
p9
F-37.955000000003096
sS'space'
p10
(dp11
(I3
I0
I3
tp12
I1
s(I-4
I11
I0
tp13
I1
s(I1
I1
I-3
tp14
I2
s(I3
I-5
I-13
tp15
I1
s(I-1
I8
I-1
tp16
I17
s(I1
I-2
I-1
tp17
I1
s(I0
I2
I1
tp18
I2
s(I-1
I3
I2
tp19
I2
s(I3
I4
I-12
tp20
I3
s(I3
I-6
I-17
tp21
I2
s(I3
I-1
I-3
tp22
I1
s(I0
I-3
I0
tp23
I1
s(I3
I1
I4
tp24
I2
s(I-1
I9
I-2
tp25
I3
s(I1
I2
I0
tp26
I3
s(I3
I-1
I-11
tp27
I3
s(I-3
I1
I4
tp28
I2
s(I-1
I10
I-2
tp29
I3
s(I-3
I-1
I0
tp30
I1
s(I3
I6
I-7
tp31
I1
s(I-2
I4
I1
tp32
I3
s(I4
I1
I1
tp33
I2
s(I-2
I0
I0
tp34
I1
s(I-3
I4
I2
tp35
I3
s(I-5
I0
I-1
tp36
I1
s(I0
I4
I2
tp37
I3
s(I-1
I1
I1
tp38
I1
s(I3
I2
I-13
tp39
I3
s(I1
I0
I-1
tp40
I1
s(I-1
I8
I-2
tp41
I3
s(I0
I1
I-3
tp42
I2
s(I0
I1
I0
tp43
I2
s(I-2
I-1
I-1
tp44
I1
s(I1
I-1
I-3
tp45
I1
s(I3
I7
I-11
tp46
I1
s(I-2
I2
I0
tp47
I2
s(I-4
I12
I-1
tp48
I2
s(I3
I4
I1
tp49
I20
s(I4
I-3
I-2
tp50
I6
s(I0
I-1
I-3
tp51
I1
s(I3
I-2
I-22
tp52
I1
s(I-2
I14
I-1
tp53
I3
s(I3
I-4
I-11
tp54
I2
s(I-2
I7
I0
tp55
I17
s(I1
I2
I-3
tp56
I3
s(I1
I-2
I1
tp57
I1
s(I3
I1
I-3
tp58
I2
s(I-2
I3
I2
tp59
I2
s(I-3
I2
I3
tp60
I2
s(I3
I10
I-12
tp61
I1
s(I-2
I0
I2
tp62
I1
s(I-1
I12
I-2
tp63
I3
s(I3
I-5
I-17
tp64
I2
s(I0
I-1
I0
tp65
I1
s(I-5
I2
I2
tp66
I2
s(I1
I1
I0
tp67
I2
s(I3
I6
I-10
tp68
I2
s(I-1
I-1
I1
tp69
I1
s(I0
I1
I-2
tp70
I2
s(I-5
I1
I0
tp71
I1
s(I3
I-3
I-1
tp72
I1
s(I4
I-1
I1
tp73
I3
s(I4
I2
I3
tp74
I2
s(I-2
I0
I4
tp75
I1
s(I-3
I3
I2
tp76
I2
s(I3
I8
I-9
tp77
I2
s(I3
I0
I4
tp78
I1
s(I-4
I11
I1
tp79
I1
s(I1
I-3
I0
tp80
I1
s(I-1
I6
I0
tp81
I16
s(I-1
I-1
I3
tp82
I1
s(I0
I2
I0
tp83
I3
s(I0
I0
I-1
tp84
I1
s(I-4
I3
I4
tp85
I3
s(I3
I4
I-11
tp86
I3
s(I3
I-6
I-20
tp87
I1
s(I1
I0
I0
tp88
I1
s(I3
I1
I3
tp89
I1
s(I-5
I3
I1
tp90
I3
s(I-4
I0
I2
tp91
I1
s(I-1
I1
I0
tp92
I2
s(I3
I3
I-5
tp93
I1
s(I-2
I7
I1
tp94
I17
s(I-6
I3
I2
tp95
I3
s(I-1
I2
I4
tp96
I2
s(I0
I-2
I2
tp97
I1
s(I-1
I4
I0
tp98
I16
s(I-1
I0
I-1
tp99
I1
s(I4
I-3
I0
tp100
I6
s(I4
I1
I2
tp101
I1
s(I-4
I0
I3
tp102
I1
s(I-3
I4
I3
tp103
I3
s(I-2
I1
I3
tp104
I1
s(I3
I2
I-16
tp105
I3
s(I1
I-1
I1
tp106
I1
s(I-3
I2
I0
tp107
I2
s(I3
I-2
I-11
tp108
I2
s(I0
I1
I-1
tp109
I2
s(I-3
I-1
I2
tp110
I1
s(I0
I1
I1
tp111
I1
s(I3
I-7
I-16
tp112
I1
s(I3
I3
I-8
tp113
I3
s(I1
I-1
I-1
tp114
I1
s(I0
I-2
I-3
tp115
I1
s(I4
I2
I1
tp116
I2
s(I1
I-2
I-2
tp117
I1
s(I-5
I0
I0
tp118
I1
s(I1
I-3
I-1
tp119
I1
s(I3
I4
I2
tp120
I3
s(I4
I3
I1
tp121
I3
s(I3
I-1
I-21
tp122
I1
s(I3
I3
I4
tp123
I3
s(I0
I2
I-1
tp124
I3
s(I1
I2
I-1
tp125
I3
s(I-5
I3
I-1
tp126
I3
s(I0
I-3
I-1
tp127
I1
s(I3
I10
I-11
tp128
I1
s(I3
I-1
I-2
tp129
I1
s(I3
I-5
I-18
tp130
I2
s(I2
I1
I2
tp131
I1
s(I-4
I2
I3
tp132
I2
s(I3
I8
I-16
tp133
I2
s(I0
I-1
I3
tp134
I1
s(I-5
I2
I3
tp135
I2
s(I2
I-3
I-2
tp136
I1
s(I2
I0
I-3
tp137
I1
s(I1
I1
I3
tp138
I1
s(I3
I6
I-9
tp139
I2
s(I-4
I11
I-1
tp140
I1
s(I-1
I-1
I0
tp141
I1
s(I-1
I5
I0
tp142
I3
s(I4
I4
I2
tp143
I3
s(I3
I1
I-12
tp144
I3
s(I-1
I7
I-1
tp145
I17
s(I4
I-2
I0
tp146
I4
s(I3
I11
I-7
tp147
I2
s(I4
I2
I2
tp148
I1
s(I-3
I0
I-1
tp149
I1
s(I-3
I3
I1
tp150
I2
s(I-3
I-1
I-1
tp151
I1
s(I-1
I-1
I-2
tp152
I1
s(I1
I4
I2
tp153
I3
s(I3
I3
I-14
tp154
I3
s(I3
I-2
I-3
tp155
I1
s(I3
I-7
I-17
tp156
I2
s(I3
I0
I0
tp157
I1
s(I0
I2
I3
tp158
I2
s(I-7
I3
I2
tp159
I3
s(I-2
I3
I4
tp160
I3
s(I-3
I1
I0
tp161
I2
s(I3
I4
I-10
tp162
I3
s(I3
I-6
I-19
tp163
I2
s(I3
I-3
I-11
tp164
I2
s(I2
I0
I1
tp165
I1
s(I4
I-1
I-3
tp166
I9
s(I3
I1
I2
tp167
I1
s(I-1
I7
I1
tp168
I17
s(I-5
I3
I0
tp169
I3
s(I-4
I0
I1
tp170
I1
s(I3
I9
I-10
tp171
I2
s(I3
I-2
I-13
tp172
I2
s(I-5
I2
I-1
tp173
I2
s(I-2
I2
I3
tp174
I2
s(I-2
I2
I1
tp175
I1
s(I-3
I3
I0
tp176
I3
s(I3
I2
I4
tp177
I2
s(I4
I1
I3
tp178
I1
s(I-3
I0
I0
tp179
I1
s(I-5
I1
I-2
tp180
I2
s(I1
I2
I-2
tp181
I3
s(I-2
I1
I1
tp182
I1
s(I0
I4
I0
tp183
I3
s(I-2
I-1
I-2
tp184
I1
s(I-4
I12
I1
tp185
I2
s(I1
I-1
I2
tp186
I1
s(I2
I3
I3
tp187
I3
s(I0
I1
I2
tp188
I1
s(I1
I0
I1
tp189
I1
s(I-5
I3
I-2
tp190
I3
s(I3
I-4
I-14
tp191
I1
s(I1
I-1
I0
tp192
I1
s(I2
I-3
I-1
tp193
I1
s(I3
I-2
I-2
tp194
I1
s(I3
I10
I-14
tp195
I2
s(I0
I8
I0
tp196
I17
s(I-5
I0
I1
tp197
I1
s(I-1
I-1
I-3
tp198
I1
s(I2
I4
I2
tp199
I3
s(I3
I9
I-16
tp200
I2
s(I-1
I13
I-2
tp201
I3
s(I4
I0
I4
tp202
I1
s(I-2
I-1
I0
tp203
I1
s(I0
I3
I1
tp204
I3
s(I1
I1
I-2
tp205
I2
s(I-1
I0
I4
tp206
I1
s(I-2
I0
I-1
tp207
I1
s(I3
I5
I-16
tp208
I3
s(I3
I-6
I-11
tp209
I2
s(I2
I1
I3
tp210
I1
s(I3
I8
I-15
tp211
I2
s(I0
I2
I-2
tp212
I3
s(I-5
I2
I0
tp213
I2
s(I-1
I8
I1
tp214
I17
s(I0
I-1
I2
tp215
I1
s(I1
I-2
I0
tp216
I1
s(I1
I-3
I-2
tp217
I1
s(I3
I6
I-12
tp218
I1
s(I3
I-4
I-21
tp219
I1
s(I-3
I0
I2
tp220
I1
s(I3
I-2
I1
tp221
I3
s(I3
I-6
I-22
tp222
I1
s(I-4
I2
I4
tp223
I2
s(I1
I-2
I-3
tp224
I1
s(I3
I-3
I0
tp225
I1
s(I-5
I1
I-1
tp226
I2
s(I0
I-1
I-1
tp227
I1
s(I2
I2
I-3
tp228
I3
s(I3
I3
I-11
tp229
I3
s(I3
I-7
I-18
tp230
I2
s(I-3
I12
I2
tp231
I2
s(I1
I1
I-1
tp232
I2
s(I0
I2
I2
tp233
I1
s(I4
I1
I4
tp234
I2
s(I-4
I3
I2
tp235
I2
s(I2
I0
I0
tp236
I1
s(I3
I1
I1
tp237
I1
s(I-5
I3
I3
tp238
I3
s(I3
I-5
I-15
tp239
I1
s(I-4
I0
I0
tp240
I1
s(I3
I-1
I-16
tp241
I3
s(I3
I3
I-3
tp242
I5
s(I2
I-2
I-1
tp243
I22
s(I-1
I2
I2
tp244
I1
s(I0
I-1
I-2
tp245
I1
s(I-2
I1
I-1
tp246
I2
s(I-2
I4
I2
tp247
I3
s(I-4
I5
I2
tp248
I3
s(I3
I10
I-5
tp249
I2
s(I-2
I0
I-3
tp250
I1
s(I3
I3
I1
tp251
I3
s(I-3
I4
I1
tp252
I3
s(I1
I3
I4
tp253
I3
s(I-4
I12
I0
tp254
I2
s(I-2
I1
I4
tp255
I2
s(I-3
I13
I1
tp256
I3
s(I1
I0
I-3
tp257
I1
s(I-2
I-1
I3
tp258
I1
s(I0
I1
I3
tp259
I1
s(I4
I0
I3
tp260
I1
s(I-4
I2
I1
tp261
I2
s(I-1
I-2
I0
tp262
I1
s(I2
I3
I1
tp263
I3
s(I0
I7
I0
tp264
I17
s(I3
I10
I-13
tp265
I1
s(I-5
I0
I2
tp266
I1
s(I4
I-3
I-1
tp267
I6
s(I3
I2
I1
tp268
I2
s(I3
I2
I-2
tp269
I3
s(I0
I0
I4
tp270
I1
s(I0
I-2
I-2
tp271
I1
s(I0
I6
I0
tp272
I17
s(I3
I0
I-11
tp273
I3
s(I-3
I11
I2
tp274
I1
s(I1
I1
I1
tp275
I1
s(I-1
I14
I-1
tp276
I3
s(I-3
I-1
I1
tp277
I1
s(I4
I2
I4
tp278
I2
s(I1
I2
I3
tp279
I2
s(I3
I5
I-9
tp280
I3
s(I3
I4
I-17
tp281
I3
s(I-3
I14
I0
tp282
I3
s(I-1
I3
I-1
tp283
I18
s(I-2
I2
I-2
tp284
I3
s(I3
I-3
I-3
tp285
I1
s(I-1
I3
I1
tp286
I3
s(I-5
I2
I1
tp287
I2
s(I-1
I8
I0
tp288
I17
s(I2
I-3
I-3
tp289
I1
s(I-4
I1
I0
tp290
I2
s(I3
I6
I-11
tp291
I1
s(I-1
I6
I-1
tp292
I17
s(I-4
I1
I-1
tp293
I2
s(I-5
I11
I1
tp294
I1
s(I-3
I1
I1
tp295
I1
s(I4
I-1
I0
tp296
I4
s(I3
I11
I-5
tp297
I2
s(I4
I-2
I-2
tp298
I9
s(I-1
I7
I0
tp299
I17
s(I-4
I13
I0
tp300
I3
s(I-1
I-1
I2
tp301
I1
s(I3
I-7
I-19
tp302
I2
s(I-4
I3
I-1
tp303
I19
s(I-2
I2
I2
tp304
I1
s(I0
I0
I-2
tp305
I1
s(I3
I2
I2
tp306
I1
s(I-4
I3
I3
tp307
I3
s(I-2
I-2
I1
tp308
I1
s(I-4
I0
I-1
tp309
I1
s(I2
I-3
I0
tp310
I1
s(I-3
I0
I1
tp311
I1
s(I2
I0
I3
tp312
I1
s(I3
I1
I0
tp313
I2
s(I-1
I2
I-3
tp314
I3
s(I-5
I3
I2
tp315
I3
s(I-4
I-1
I1
tp316
I1
s(I-1
I4
I2
tp317
I3
s(I1
I2
I4
tp318
I2
s(I3
I3
I-4
tp319
I1
s(I3
I-2
I0
tp320
I1
s(I3
I-7
I-11
tp321
I2
s(I3
I3
I2
tp322
I2
s(I-1
I2
I1
tp323
I2
s(I2
I2
I2
tp324
I1
s(I3
I-4
I-12
tp325
I2
s(I-4
I2
I-2
tp326
I2
s(I-2
I3
I0
tp327
I3
s(I4
I-2
I-1
tp328
I4
s(I3
I4
I-8
tp329
I3
s(I1
I3
I3
tp330
I3
s(I-1
I-1
I-1
tp331
I1
s(I4
I3
I4
tp332
I3
s(I2
I3
I-5
tp333
I1
s(I3
I2
I-9
tp334
I3
s(I0
I3
I3
tp335
I3
s(I-3
I13
I0
tp336
I2
s(I1
I0
I-2
tp337
I1
s(I0
I1
I4
tp338
I2
s(I-1
I9
I0
tp339
I17
s(I4
I0
I2
tp340
I1
s(I-4
I2
I0
tp341
I3
s(I2
I3
I2
tp342
I2
s(I3
I10
I-16
tp343
I2
s(I-1
I0
I2
tp344
I1
s(I-5
I0
I3
tp345
I1
s(I3
I-6
I-13
tp346
I1
s(I-4
I3
I-2
tp347
I3
s(I3
I8
I-5
tp348
I2
s(I-3
I2
I1
tp349
I1
s(I0
I0
I3
tp350
I1
s(I-1
I6
I1
tp351
I17
s(I-3
I11
I1
tp352
I1
s(I-2
I-1
I1
tp353
I1
s(I-3
I1
I-1
tp354
I2
s(I3
I7
I-7
tp355
I1
s(I-5
I1
I4
tp356
I2
s(I3
I0
I-2
tp357
I1
s(I-1
I1
I4
tp358
I2
s(I2
I1
I1
tp359
I1
s(I3
I-1
I-1
tp360
I1
s(I-3
I0
I-2
tp361
I1
s(I-4
I1
I1
tp362
I1
s(I3
I6
I-14
tp363
I2
s(I0
I-2
I0
tp364
I1
s(I3
I0
I-1
tp365
I1
s(I-5
I11
I0
tp366
I1
s(I2
I2
I4
tp367
I2
s(I-1
I3
I4
tp368
I3
s(I3
I11
I-6
tp369
I2
s(I-1
I-2
I1
tp370
I1
s(I2
I1
I-3
tp371
I2
s(I-4
I13
I1
tp372
I3
s(I-2
I1
I-2
tp373
I2
s(I-3
I12
I0
tp374
I1
s(I0
I0
I-3
tp375
I1
s(I3
I2
I3
tp376
I2
s(I-2
I0
I-2
tp377
I1
s(I-5
I4
I1
tp378
I3
s(I-4
I3
I0
tp379
I3
s(I-1
I0
I-3
tp380
I1
s(I-1
I0
I-2
tp381
I1
s(I-2
I1
I2
tp382
I1
s(I2
I2
I0
tp383
I3
s(I-2
I6
I0
tp384
I17
s(I4
I0
I-2
tp385
I4
s(I3
I9
I-13
tp386
I1
s(I-3
I1
I3
tp387
I1
s(I-1
I2
I0
tp388
I3
s(I2
I2
I1
tp389
I2
s(I3
I10
I-7
tp390
I1
s(I1
I3
I-3
tp391
I5
s(I-3
I2
I-2
tp392
I3
s(I0
I-2
I-1
tp393
I1
s(I1
I3
I2
tp394
I2
s(I3
I-2
I-17
tp395
I2
s(I0
I7
I-1
tp396
I17
s(I2
I-2
I0
tp397
I1
s(I3
I9
I-5
tp398
I2
s(I-3
I2
I4
tp399
I2
s(I-4
I4
I3
tp400
I3
s(I1
I1
I2
tp401
I1
s(I4
I0
I1
tp402
I1
s(I1
I0
I4
tp403
I1
s(I3
I7
I-16
tp404
I2
s(I2
I-2
I-2
tp405
I22
s(I-1
I1
I-3
tp406
I2
s(I3
I-2
I-1
tp407
I1
s(I1
I2
I2
tp408
I1
s(I-2
I0
I1
tp409
I1
s(I-5
I0
I4
tp410
I1
s(I3
I-5
I-22
tp411
I1
s(I-2
I2
I-1
tp412
I3
s(I3
I-3
I-2
tp413
I1
s(I3
I6
I-15
tp414
I2
s(I2
I-2
I-3
tp415
I1
s(I-3
I2
I2
tp416
I1
s(I0
I0
I2
tp417
I1
s(I-2
I-2
I0
tp418
I1
s(I-3
I0
I3
tp419
I1
s(I-4
I13
I-1
tp420
I3
s(I-3
I11
I0
tp421
I1
s(I3
I7
I-8
tp422
I2
s(I-5
I1
I3
tp423
I1
s(I0
I3
I4
tp424
I3
s(I-3
I1
I-2
tp425
I2
s(I1
I1
I4
tp426
I2
s(I4
I-1
I-2
tp427
I9
s(I3
I8
I-12
tp428
I1
s(I3
I0
I1
tp429
I1
s(I-4
I1
I-2
tp430
I2
s(I-4
I1
I2
tp431
I1
s(I3
I6
I-13
tp432
I1
s(I3
I-1
I1
tp433
I1
s(I-2
I11
I0
tp434
I3
s(I-1
I0
I1
tp435
I1
s(I-1
I3
I0
tp436
I16
s(I-3
I14
I-1
tp437
I3
s(I-1
I1
I3
tp438
I1
s(I3
I-1
I0
tp439
I1
s(I-1
I2
I3
tp440
I2
s(I3
I-7
I-21
tp441
I1
s(I-3
I12
I1
tp442
I2
s(I3
I6
I-5
tp443
I2
s(I3
I2
I0
tp444
I3
s(I3
I1
I-17
tp445
I3
s(I3
I2
I-1
tp446
I3
s(I-4
I3
I1
tp447
I3
s(I3
I4
I-14
tp448
I3
s(I5
I0
I2
tp449
I1
s(I3
I1
I-2
tp450
I2
s(I2
I3
I-3
tp451
I5
s(I4
I0
I-3
tp452
I4
s(I3
I9
I-14
tp453
I2
s(I-3
I1
I2
tp454
I1
s(I-1
I-2
I-1
tp455
I1
s(I2
I3
I4
tp456
I3
s(I3
I0
I-17
tp457
I3
s(I1
I3
I-4
tp458
I1
s(I-1
I0
I3
tp459
I1
s(I-1
I-2
I-2
tp460
I1
s(I3
I5
I-13
tp461
I3
s(I4
I3
I2
tp462
I2
s(I3
I-2
I-20
tp463
I1
s(I-1
I2
I-1
tp464
I3
s(I3
I9
I-6
tp465
I2
s(I3
I3
I3
tp466
I3
s(I-4
I4
I2
tp467
I3
s(I4
I0
I0
tp468
I1
s(I-4
I2
I2
tp469
I1
s(I-1
I11
I-2
tp470
I3
s(I3
I10
I-10
tp471
I2
s(I-1
I0
I0
tp472
I1
s(I-2
I3
I3
tp473
I3
s(I3
I-5
I-19
tp474
I2
s(I3
I-6
I-15
tp475
I1
s(I-1
I14
I-2
tp476
I3
s(I3
I2
I-3
tp477
I3
s(I0
I0
I1
tp478
I1
s(I0
I2
I-3
tp479
I3
s(I3
I-4
I-17
tp480
I2
s(I4
I-2
I1
tp481
I3
s(I2
I2
I3
tp482
I2
s(I3
I7
I-5
tp483
I2
s(I-5
I1
I2
tp484
I1
s(I-1
I3
I3
tp485
I3
s(I4
I-2
I-3
tp486
I10
s(I-3
I2
I-1
tp487
I3
s(I-5
I12
I0
tp488
I2
s(I3
I0
I2
tp489
I1
s(I3
I3
I-15
tp490
I3
s(I2
I-2
I1
tp491
I1
s(I-5
I2
I4
tp492
I3
s(I-4
I1
I3
tp493
I1
s(I3
I6
I-16
tp494
I2
s(I-2
I-1
I-3
tp495
I1
s(I-5
I2
I-2
tp496
I2
s(I-2
I3
I1
tp497
I2
s(I-4
I1
I4
tp498
I2
s(I2
I0
I4
tp499
I1
s(I-1
I-2
I-3
tp500
I1
s(I1
I0
I3
tp501
I1
s(I-3
I3
I4
tp502
I3
s(I0
I7
I1
tp503
I17
s(I3
I-2
I-12
tp504
I2
s(I-4
I14
I-1
tp505
I3
s(I-2
I11
I2
tp506
I1
s(I3
I6
I-8
tp507
I2
s(I-2
I-1
I2
tp508
I1
s(I1
I3
I1
tp509
I3
s(I-1
I1
I-2
tp510
I2
s(I4
I1
I0
tp511
I2
s(I5
I0
I3
tp512
I1
s(I4
I0
I-1
tp513
I4
s(I2
I1
I0
tp514
I2
s(I-2
I1
I0
tp515
I2
s(I2
I-1
I1
tp516
I1
s(I3
I-5
I-11
tp517
I2
s(I-4
I2
I-1
tp518
I3
s(I-4
I0
I4
tp519
I1
s(I0
I2
I4
tp520
I2
s(I3
I8
I-14
tp521
I2
s(I3
I-3
I-20
tp522
I1
s(I3
I-7
I-14
tp523
I1
s(I1
I0
I2
tp524
I1
s(I-3
I13
I-1
tp525
I3
s(I3
I-3
I-17
tp526
I2
s(I-1
I1
I-1
tp527
I2
s(I1
I3
I-5
tp528
I1
s(I1
I2
I1
tp529
I2
s(I4
I3
I3
tp530
I3
s(I-1
I2
I-2
tp531
I3
s(I2
I4
I1
tp532
I21
s(I3
I4
I-15
tp533
I3
s(I2
I-1
I-3
tp534
I1
s(I-2
I8
I0
tp535
I17
s(I3
I0
I-15
tp536
I3
s(I-4
I4
I1
tp537
I3
s(I-2
I7
I-1
tp538
I17
s(I4
I-1
I-1
tp539
I4
s(I3
I1
I-1
tp540
I2
s(I0
I3
I2
tp541
I2
s(I3
I10
I-9
tp542
I2
s(I-2
I0
I3
tp543
I1
s(I1
I-1
I-2
tp544
I1
s(I2
I0
I2
tp545
I1
s(I2
I1
I4
tp546
I2
s(I3
I10
I-8
tp547
I2
s(I0
I-1
I1
tp548
I1
s(I0
I0
I0
tp549
I1
s(I1
I-3
I-3
tp550
I1
s(I-2
I2
I4
tp551
I2
s(I-1
I-2
I2
tp552
I1
s(I0
I-2
I1
tp553
I1
s(I-5
I1
I1
tp554
I1
s(I-1
I1
I2
tp555
I1
s(I3
I0
I-3
tp556
I1
s(I3
I1
I-10
tp557
I3
s(I4
I2
I0
tp558
I3
s(I3
I8
I-7
tp559
I1
s(I-3
I3
I3
tp560
I3
s(I2
I-1
I0
tp561
I1
s(I-3
I0
I4
tp562
I1
ssb.