(i__main__
LoadStruct
p0
(dp1
S'playerpos'
p2
(ivec
Vec3
p3
(dp4
S'y'
p5
F10.541007850444819
sS'x'
p6
F6.236336947601171
sS'z'
p7
F-1.1670385419616713
sbsS'playeraimyaw'
p8
F-2.007500000000464
sS'playeraimpitch'
p9
F-38.012500000002376
sS'space'
p10
(dp11
(I3
I0
I3
tp12
I1
s(I-4
I11
I0
tp13
I1
s(I1
I1
I-3
tp14
I2
s(I-1
I8
I-1
tp15
I17
s(I1
I-1
I-2
tp16
I1
s(I0
I2
I1
tp17
I2
s(I-1
I3
I2
tp18
I2
s(I3
I-1
I-3
tp19
I1
s(I0
I-3
I0
tp20
I1
s(I3
I1
I4
tp21
I2
s(I1
I2
I0
tp22
I3
s(I2
I-3
I-1
tp23
I1
s(I-3
I1
I4
tp24
I2
s(I-3
I-1
I0
tp25
I1
s(I3
I6
I-7
tp26
I2
s(I-2
I4
I1
tp27
I3
s(I4
I1
I1
tp28
I2
s(I-1
I0
I0
tp29
I1
s(I-3
I4
I2
tp30
I3
s(I-5
I0
I-1
tp31
I1
s(I0
I4
I2
tp32
I3
s(I-1
I1
I1
tp33
I1
s(I1
I0
I-1
tp34
I1
s(I0
I1
I-3
tp35
I2
s(I0
I1
I0
tp36
I2
s(I-1
I-2
I-1
tp37
I1
s(I1
I-1
I-3
tp38
I1
s(I2
I-2
I0
tp39
I1
s(I-4
I12
I-1
tp40
I2
s(I3
I4
I1
tp41
I20
s(I4
I-3
I-2
tp42
I6
s(I0
I-1
I-3
tp43
I1
s(I-2
I7
I0
tp44
I17
s(I1
I2
I-3
tp45
I3
s(I1
I-2
I1
tp46
I1
s(I3
I1
I-3
tp47
I2
s(I0
I3
I3
tp48
I3
s(I3
I2
I-3
tp49
I3
s(I-1
I0
I2
tp50
I1
s(I0
I-1
I0
tp51
I1
s(I-5
I2
I2
tp52
I2
s(I1
I1
I0
tp53
I2
s(I-1
I-2
I1
tp54
I1
s(I0
I1
I-2
tp55
I2
s(I-5
I1
I0
tp56
I1
s(I3
I-3
I-1
tp57
I1
s(I4
I-1
I1
tp58
I3
s(I4
I2
I3
tp59
I2
s(I-1
I0
I4
tp60
I1
s(I-3
I3
I2
tp61
I2
s(I3
I0
I4
tp62
I1
s(I-4
I11
I1
tp63
I1
s(I1
I-3
I0
tp64
I1
s(I-2
I6
I0
tp65
I17
s(I2
I2
I3
tp66
I2
s(I0
I2
I0
tp67
I3
s(I0
I0
I-2
tp68
I1
s(I-4
I3
I4
tp69
I3
s(I1
I-1
I-1
tp70
I1
s(I3
I1
I3
tp71
I1
s(I-5
I3
I1
tp72
I3
s(I-4
I0
I2
tp73
I1
s(I-2
I1
I0
tp74
I2
s(I3
I3
I-5
tp75
I1
s(I-2
I7
I1
tp76
I17
s(I-6
I3
I2
tp77
I3
s(I-1
I2
I4
tp78
I2
s(I0
I2
I-1
tp79
I3
s(I-1
I4
I0
tp80
I16
s(I-2
I0
I-2
tp81
I1
s(I4
I-3
I0
tp82
I6
s(I4
I1
I2
tp83
I1
s(I-4
I0
I3
tp84
I1
s(I-3
I4
I3
tp85
I3
s(I-2
I8
I0
tp86
I17
s(I2
I3
I-3
tp87
I5
s(I1
I-1
I1
tp88
I1
s(I3
I2
I-1
tp89
I3
s(I0
I1
I-1
tp90
I2
s(I3
I0
I2
tp91
I1
s(I0
I1
I1
tp92
I1
s(I1
I-2
I-1
tp93
I1
s(I0
I-2
I-3
tp94
I1
s(I4
I-2
I-3
tp95
I10
s(I1
I0
I0
tp96
I1
s(I-5
I0
I0
tp97
I1
s(I1
I-3
I-2
tp98
I1
s(I3
I4
I2
tp99
I3
s(I4
I3
I1
tp100
I3
s(I3
I3
I4
tp101
I3
s(I0
I-1
I2
tp102
I1
s(I1
I2
I-2
tp103
I3
s(I-5
I3
I-2
tp104
I3
s(I0
I-3
I-1
tp105
I1
s(I3
I0
I-3
tp106
I1
s(I3
I0
I0
tp107
I1
s(I2
I1
I2
tp108
I1
s(I1
I0
I4
tp109
I1
s(I0
I-1
I3
tp110
I1
s(I-5
I2
I3
tp111
I2
s(I2
I-3
I-2
tp112
I1
s(I2
I0
I-3
tp113
I1
s(I1
I1
I3
tp114
I1
s(I-4
I11
I-1
tp115
I1
s(I-1
I-2
I0
tp116
I1
s(I3
I-3
I-3
tp117
I1
s(I4
I4
I2
tp118
I3
s(I-2
I7
I-1
tp119
I17
s(I4
I-2
I0
tp120
I4
s(I3
I11
I-7
tp121
I2
s(I4
I2
I2
tp122
I1
s(I3
I-1
I-2
tp123
I1
s(I-3
I3
I1
tp124
I2
s(I-2
I-1
I-2
tp125
I1
s(I1
I4
I2
tp126
I3
s(I3
I-2
I-3
tp127
I1
s(I3
I-2
I-1
tp128
I1
s(I0
I2
I3
tp129
I2
s(I-7
I3
I2
tp130
I3
s(I-2
I3
I4
tp131
I3
s(I3
I3
I-4
tp132
I1
s(I2
I0
I1
tp133
I1
s(I4
I2
I1
tp134
I2
s(I3
I1
I2
tp135
I1
s(I-1
I7
I1
tp136
I17
s(I-5
I3
I0
tp137
I3
s(I-4
I0
I1
tp138
I1
s(I-5
I2
I-2
tp139
I2
s(I-2
I2
I3
tp140
I2
s(I2
I-2
I1
tp141
I1
s(I-3
I3
I0
tp142
I3
s(I3
I2
I4
tp143
I2
s(I4
I1
I3
tp144
I1
s(I3
I-2
I0
tp145
I1
s(I-5
I1
I-2
tp146
I2
s(I1
I2
I-1
tp147
I3
s(I-2
I1
I1
tp148
I1
s(I-2
I-1
I-1
tp149
I1
s(I-4
I12
I1
tp150
I2
s(I1
I-1
I2
tp151
I1
s(I2
I3
I3
tp152
I3
s(I0
I1
I2
tp153
I1
s(I-2
I2
I0
tp154
I2
s(I1
I0
I1
tp155
I1
s(I-5
I3
I-1
tp156
I3
s(I1
I0
I-2
tp157
I1
s(I-2
I1
I-1
tp158
I2
s(I-3
I0
I-1
tp159
I1
s(I0
I8
I0
tp160
I17
s(I-5
I0
I1
tp161
I1
s(I-1
I-1
I-3
tp162
I1
s(I2
I4
I2
tp163
I3
s(I4
I0
I4
tp164
I1
s(I-2
I-1
I0
tp165
I1
s(I0
I3
I1
tp166
I3
s(I1
I1
I-2
tp167
I2
s(I-2
I0
I4
tp168
I1
s(I-2
I0
I-1
tp169
I1
s(I2
I1
I3
tp170
I1
s(I0
I7
I0
tp171
I17
s(I0
I-2
I2
tp172
I1
s(I-5
I2
I0
tp173
I2
s(I-1
I8
I1
tp174
I17
s(I0
I2
I-2
tp175
I3
s(I1
I-1
I0
tp176
I1
s(I1
I-3
I-1
tp177
I1
s(I-3
I0
I2
tp178
I1
s(I3
I-1
I1
tp179
I1
s(I-4
I2
I4
tp180
I2
s(I1
I0
I3
tp181
I1
s(I3
I-3
I0
tp182
I1
s(I-5
I1
I-1
tp183
I2
s(I0
I-1
I-1
tp184
I1
s(I2
I2
I-3
tp185
I3
s(I-3
I12
I2
tp186
I2
s(I1
I1
I-1
tp187
I2
s(I0
I2
I2
tp188
I1
s(I4
I1
I4
tp189
I2
s(I-4
I3
I2
tp190
I2
s(I2
I0
I0
tp191
I1
s(I3
I1
I1
tp192
I1
s(I-5
I3
I3
tp193
I3
s(I1
I2
I3
tp194
I2
s(I-3
I1
I1
tp195
I1
s(I-2
I2
I-1
tp196
I3
s(I-2
I2
I2
tp197
I1
s(I0
I-1
I-2
tp198
I1
s(I-1
I1
I-1
tp199
I2
s(I-1
I4
I2
tp200
I3
s(I-4
I5
I2
tp201
I3
s(I3
I10
I-5
tp202
I2
s(I-1
I0
I-3
tp203
I1
s(I3
I3
I1
tp204
I3
s(I-3
I4
I1
tp205
I3
s(I-2
I-1
I2
tp206
I1
s(I1
I3
I4
tp207
I3
s(I-4
I12
I0
tp208
I2
s(I-2
I1
I4
tp209
I2
s(I-3
I13
I1
tp210
I3
s(I1
I0
I-3
tp211
I1
s(I-1
I-1
I3
tp212
I1
s(I0
I1
I3
tp213
I1
s(I4
I0
I3
tp214
I1
s(I-4
I2
I1
tp215
I2
s(I-1
I-1
I0
tp216
I1
s(I2
I3
I1
tp217
I3
s(I-5
I0
I2
tp218
I1
s(I4
I-3
I-1
tp219
I6
s(I3
I2
I-2
tp220
I3
s(I0
I0
I4
tp221
I1
s(I0
I-2
I-1
tp222
I1
s(I0
I6
I0
tp223
I17
s(I-4
I14
I1
tp224
I3
s(I-3
I11
I2
tp225
I1
s(I-1
I-1
I2
tp226
I1
s(I1
I-3
I-3
tp227
I1
s(I3
I0
I1
tp228
I1
s(I4
I2
I4
tp229
I2
s(I-4
I0
I0
tp230
I1
s(I-3
I14
I0
tp231
I3
s(I2
I1
I0
tp232
I2
s(I-2
I2
I-2
tp233
I3
s(I-1
I5
I0
tp234
I16
s(I-2
I3
I1
tp235
I2
s(I-5
I2
I1
tp236
I2
s(I-1
I8
I0
tp237
I17
s(I2
I-3
I-3
tp238
I1
s(I-4
I1
I0
tp239
I2
s(I-1
I6
I-1
tp240
I17
s(I-4
I1
I-2
tp241
I2
s(I-5
I11
I1
tp242
I1
s(I3
I3
I-3
tp243
I5
s(I4
I-1
I0
tp244
I4
s(I3
I11
I-5
tp245
I2
s(I4
I-2
I-2
tp246
I9
s(I-1
I7
I0
tp247
I17
s(I-4
I13
I0
tp248
I3
s(I-1
I-2
I2
tp249
I1
s(I-4
I3
I-2
tp250
I3
s(I-1
I2
I2
tp251
I1
s(I0
I0
I-1
tp252
I1
s(I3
I2
I2
tp253
I1
s(I-4
I3
I3
tp254
I3
s(I-1
I-1
I1
tp255
I1
s(I-4
I0
I-1
tp256
I1
s(I2
I-3
I0
tp257
I1
s(I-3
I0
I1
tp258
I1
s(I2
I0
I3
tp259
I1
s(I3
I1
I0
tp260
I2
s(I2
I-2
I-3
tp261
I1
s(I-5
I3
I2
tp262
I3
s(I-4
I-1
I1
tp263
I1
s(I-2
I4
I2
tp264
I3
s(I1
I2
I4
tp265
I2
s(I-3
I1
I0
tp266
I2
s(I3
I0
I-2
tp267
I1
s(I-2
I2
I1
tp268
I1
s(I-1
I1
I4
tp269
I2
s(I-4
I2
I-1
tp270
I3
s(I-1
I3
I0
tp271
I16
s(I4
I-2
I-1
tp272
I4
s(I0
I0
I3
tp273
I1
s(I1
I3
I3
tp274
I3
s(I-1
I-1
I-1
tp275
I1
s(I4
I3
I4
tp276
I3
s(I2
I3
I-5
tp277
I1
s(I-2
I3
I2
tp278
I2
s(I-3
I13
I0
tp279
I2
s(I1
I-2
I0
tp280
I1
s(I0
I1
I4
tp281
I2
s(I-1
I9
I0
tp282
I17
s(I4
I0
I2
tp283
I1
s(I-4
I2
I0
tp284
I3
s(I2
I3
I2
tp285
I2
s(I-2
I0
I2
tp286
I1
s(I-5
I0
I3
tp287
I1
s(I-4
I3
I-1
tp288
I19
s(I3
I8
I-5
tp289
I2
s(I-3
I2
I1
tp290
I1
s(I-1
I6
I1
tp291
I17
s(I-4
I14
I0
tp292
I3
s(I-3
I11
I1
tp293
I1
s(I-2
I-2
I1
tp294
I1
s(I-3
I1
I-1
tp295
I2
s(I3
I7
I-7
tp296
I2
s(I-5
I1
I4
tp297
I2
s(I3
I0
I-1
tp298
I1
s(I-3
I14
I1
tp299
I3
s(I2
I1
I1
tp300
I1
s(I3
I-2
I-2
tp301
I1
s(I-3
I0
I-2
tp302
I1
s(I-4
I1
I1
tp303
I1
s(I0
I-2
I0
tp304
I1
s(I-3
I0
I0
tp305
I1
s(I-5
I11
I0
tp306
I1
s(I-1
I3
I4
tp307
I3
s(I3
I11
I-6
tp308
I2
s(I-2
I-1
I1
tp309
I1
s(I-1
I3
I3
tp310
I3
s(I-4
I13
I1
tp311
I3
s(I-1
I1
I-2
tp312
I2
s(I-3
I12
I0
tp313
I1
s(I0
I0
I-3
tp314
I1
s(I3
I2
I3
tp315
I2
s(I-1
I0
I-1
tp316
I1
s(I-5
I4
I1
tp317
I3
s(I-4
I3
I0
tp318
I3
s(I-2
I0
I-3
tp319
I1
s(I2
I0
I2
tp320
I1
s(I-2
I1
I2
tp321
I1
s(I2
I2
I0
tp322
I3
s(I-2
I11
I2
tp323
I1
s(I4
I0
I-2
tp324
I4
s(I-3
I1
I3
tp325
I1
s(I0
I7
I1
tp326
I17
s(I2
I2
I1
tp327
I2
s(I1
I3
I-3
tp328
I5
s(I3
I2
I0
tp329
I3
s(I0
I-2
I-2
tp330
I1
s(I1
I3
I2
tp331
I2
s(I0
I7
I-1
tp332
I17
s(I2
I-1
I0
tp333
I1
s(I3
I9
I-5
tp334
I2
s(I2
I4
I1
tp335
I21
s(I-4
I4
I3
tp336
I3
s(I1
I1
I2
tp337
I1
s(I4
I0
I1
tp338
I1
s(I-4
I2
I3
tp339
I2
s(I-1
I2
I-2
tp340
I3
s(I-1
I1
I-3
tp341
I2
s(I3
I-1
I-1
tp342
I1
s(I1
I2
I2
tp343
I1
s(I-2
I0
I1
tp344
I1
s(I-5
I0
I4
tp345
I1
s(I2
I-2
I-1
tp346
I22
s(I3
I-3
I-2
tp347
I1
s(I-1
I2
I-3
tp348
I3
s(I-3
I2
I2
tp349
I1
s(I0
I0
I2
tp350
I1
s(I-2
I-2
I0
tp351
I1
s(I-4
I13
I-1
tp352
I3
s(I-3
I11
I0
tp353
I1
s(I4
I-2
I1
tp354
I3
s(I-5
I1
I3
tp355
I1
s(I0
I3
I4
tp356
I3
s(I-3
I1
I-2
tp357
I2
s(I1
I1
I4
tp358
I2
s(I4
I-1
I-2
tp359
I9
s(I-3
I-1
I1
tp360
I1
s(I-4
I1
I-1
tp361
I2
s(I-4
I1
I2
tp362
I1
s(I-1
I2
I3
tp363
I2
s(I3
I-2
I1
tp364
I3
s(I-1
I0
I1
tp365
I1
s(I-2
I3
I0
tp366
I3
s(I-1
I1
I3
tp367
I1
s(I3
I-1
I0
tp368
I1
s(I-3
I12
I1
tp369
I2
s(I3
I6
I-5
tp370
I2
s(I-3
I2
I-2
tp371
I3
s(I-3
I2
I0
tp372
I2
s(I-4
I3
I1
tp373
I3
s(I5
I0
I2
tp374
I1
s(I3
I1
I-1
tp375
I2
s(I-2
I1
I3
tp376
I1
s(I4
I0
I-3
tp377
I4
s(I-3
I1
I2
tp378
I1
s(I-1
I-1
I-2
tp379
I1
s(I2
I3
I4
tp380
I3
s(I1
I3
I-4
tp381
I1
s(I-1
I0
I3
tp382
I1
s(I-1
I-2
I-2
tp383
I1
s(I4
I3
I2
tp384
I2
s(I-3
I13
I2
tp385
I3
s(I2
I-2
I-2
tp386
I22
s(I3
I9
I-6
tp387
I2
s(I3
I3
I3
tp388
I3
s(I-4
I4
I2
tp389
I3
s(I4
I0
I0
tp390
I1
s(I-4
I2
I2
tp391
I1
s(I5
I1
I2
tp392
I7
s(I-3
I-1
I-1
tp393
I1
s(I-2
I0
I0
tp394
I1
s(I2
I1
I-3
tp395
I2
s(I-3
I2
I3
tp396
I2
s(I0
I0
I1
tp397
I1
s(I0
I-1
I1
tp398
I1
s(I-2
I-1
I3
tp399
I1
s(I3
I7
I-5
tp400
I2
s(I-5
I1
I2
tp401
I1
s(I-2
I3
I3
tp402
I3
s(I4
I-1
I-3
tp403
I9
s(I-3
I2
I-1
tp404
I3
s(I-5
I12
I0
tp405
I2
s(I-3
I-1
I2
tp406
I1
s(I-1
I2
I1
tp407
I2
s(I-5
I2
I4
tp408
I3
s(I-4
I1
I3
tp409
I1
s(I-1
I-2
I-3
tp410
I1
s(I-5
I2
I-1
tp411
I2
s(I-1
I3
I1
tp412
I3
s(I-4
I1
I4
tp413
I2
s(I2
I0
I4
tp414
I1
s(I-2
I-1
I-3
tp415
I1
s(I1
I-2
I-3
tp416
I1
s(I-3
I3
I4
tp417
I3
s(I-2
I0
I3
tp418
I1
s(I3
I2
I1
tp419
I2
s(I1
I3
I1
tp420
I3
s(I4
I1
I0
tp421
I2
s(I5
I0
I3
tp422
I1
s(I4
I0
I-1
tp423
I4
s(I-1
I1
I0
tp424
I2
s(I2
I-1
I1
tp425
I1
s(I-4
I2
I-2
tp426
I2
s(I-4
I0
I4
tp427
I1
s(I0
I2
I4
tp428
I2
s(I1
I0
I2
tp429
I1
s(I-2
I1
I-2
tp430
I2
s(I1
I3
I-5
tp431
I1
s(I1
I2
I1
tp432
I2
s(I4
I3
I3
tp433
I3
s(I-1
I2
I-1
tp434
I3
s(I-3
I2
I4
tp435
I2
s(I2
I-1
I-3
tp436
I1
s(I3
I3
I2
tp437
I2
s(I-4
I4
I1
tp438
I3
s(I-1
I7
I-1
tp439
I17
s(I4
I-1
I-1
tp440
I4
s(I-1
I6
I0
tp441
I16
s(I3
I1
I-2
tp442
I2
s(I0
I3
I2
tp443
I2
s(I2
I2
I4
tp444
I2
s(I1
I-2
I-2
tp445
I1
s(I-1
I0
I-2
tp446
I1
s(I2
I1
I4
tp447
I2
s(I0
I2
I-3
tp448
I3
s(I0
I0
I0
tp449
I1
s(I1
I1
I1
tp450
I1
s(I-2
I2
I4
tp451
I2
s(I2
I2
I2
tp452
I1
s(I0
I-2
I1
tp453
I1
s(I-5
I1
I1
tp454
I1
s(I-1
I1
I2
tp455
I1
s(I-3
I0
I3
tp456
I1
s(I4
I2
I0
tp457
I3
s(I-3
I3
I3
tp458
I3
s(I-1
I2
I0
tp459
I3
s(I-3
I0
I4
tp460
I1
ssb.