(i__main__
LoadStruct
p0
(dp1
S'playerpos'
p2
(ivec
Vec3
p3
(dp4
S'y'
p5
F10.237116915700479
sS'x'
p6
F9.2962244442326973
sS'z'
p7
F3.6191310343585643
sbsS'playeraimyaw'
p8
F-2.2075000000005853
sS'playeraimpitch'
p9
F-0.43550000000000033
sS'space'
p10
(dp11
(I3
I0
I3
tp12
I1
s(I-4
I11
I0
tp13
I1
s(I1
I1
I-3
tp14
I2
s(I-2
I11
I2
tp15
I1
s(I-1
I8
I-1
tp16
I17
s(I1
I-1
I-2
tp17
I1
s(I0
I2
I1
tp18
I2
s(I-1
I3
I2
tp19
I2
s(I3
I4
I-12
tp20
I3
s(I3
I-6
I-17
tp21
I2
s(I3
I-2
I-3
tp22
I1
s(I0
I-3
I0
tp23
I1
s(I3
I1
I4
tp24
I2
s(I3
I9
I-13
tp25
I1
s(I1
I2
I0
tp26
I3
s(I3
I-1
I-11
tp27
I3
s(I-3
I1
I4
tp28
I2
s(I3
I10
I-10
tp29
I2
s(I-1
I10
I-2
tp30
I3
s(I-3
I-1
I0
tp31
I1
s(I3
I6
I-7
tp32
I1
s(I-2
I4
I1
tp33
I3
s(I4
I1
I1
tp34
I2
s(I-1
I0
I0
tp35
I1
s(I-3
I4
I2
tp36
I3
s(I-5
I0
I-1
tp37
I1
s(I0
I4
I2
tp38
I3
s(I-1
I1
I1
tp39
I1
s(I3
I2
I-13
tp40
I3
s(I1
I0
I-1
tp41
I1
s(I-1
I8
I-2
tp42
I3
s(I0
I1
I-3
tp43
I2
s(I0
I1
I0
tp44
I2
s(I-2
I-1
I-2
tp45
I1
s(I1
I-1
I-3
tp46
I1
s(I3
I7
I-11
tp47
I1
s(I-1
I2
I0
tp48
I3
s(I-4
I12
I-1
tp49
I2
s(I3
I4
I1
tp50
I20
s(I4
I-3
I-2
tp51
I6
s(I0
I-1
I-3
tp52
I1
s(I3
I-2
I-22
tp53
I1
s(I-2
I14
I-1
tp54
I3
s(I3
I-4
I-11
tp55
I2
s(I-2
I7
I0
tp56
I17
s(I1
I2
I-3
tp57
I3
s(I1
I-2
I1
tp58
I1
s(I3
I1
I-3
tp59
I2
s(I-2
I3
I2
tp60
I2
s(I3
I2
I-3
tp61
I3
s(I3
I10
I-12
tp62
I1
s(I-1
I0
I2
tp63
I1
s(I3
I10
I-7
tp64
I1
s(I3
I-5
I-17
tp65
I2
s(I0
I-1
I0
tp66
I1
s(I-5
I2
I2
tp67
I2
s(I1
I1
I0
tp68
I2
s(I3
I6
I-10
tp69
I2
s(I-2
I-1
I1
tp70
I1
s(I0
I1
I-2
tp71
I2
s(I-5
I1
I0
tp72
I1
s(I3
I-3
I-1
tp73
I1
s(I4
I-1
I1
tp74
I3
s(I4
I2
I3
tp75
I2
s(I-1
I0
I4
tp76
I1
s(I-3
I3
I2
tp77
I2
s(I3
I8
I-9
tp78
I2
s(I3
I0
I4
tp79
I1
s(I-4
I11
I1
tp80
I1
s(I1
I-3
I0
tp81
I1
s(I-1
I6
I0
tp82
I16
s(I-2
I-1
I3
tp83
I1
s(I0
I2
I0
tp84
I3
s(I0
I0
I-2
tp85
I1
s(I-4
I3
I4
tp86
I3
s(I3
I4
I-11
tp87
I3
s(I3
I-6
I-20
tp88
I1
s(I1
I-2
I-1
tp89
I1
s(I3
I1
I3
tp90
I1
s(I-5
I3
I1
tp91
I3
s(I-4
I0
I2
tp92
I1
s(I-2
I1
I0
tp93
I2
s(I3
I3
I-5
tp94
I1
s(I-2
I7
I1
tp95
I17
s(I-6
I3
I2
tp96
I3
s(I-1
I2
I4
tp97
I2
s(I0
I-1
I2
tp98
I1
s(I-1
I4
I0
tp99
I16
s(I2
I0
I2
tp100
I1
s(I4
I-3
I0
tp101
I6
s(I4
I1
I2
tp102
I1
s(I-4
I0
I3
tp103
I1
s(I-3
I4
I3
tp104
I3
s(I-2
I8
I0
tp105
I17
s(I2
I3
I-3
tp106
I5
s(I3
I2
I-16
tp107
I3
s(I1
I-1
I1
tp108
I1
s(I3
I2
I-1
tp109
I3
s(I3
I-2
I-11
tp110
I2
s(I0
I1
I-1
tp111
I2
s(I3
I0
I2
tp112
I1
s(I0
I1
I1
tp113
I1
s(I3
I-7
I-16
tp114
I1
s(I3
I3
I-8
tp115
I3
s(I1
I0
I0
tp116
I1
s(I0
I-2
I-3
tp117
I1
s(I4
I-1
I-3
tp118
I9
s(I1
I-1
I-1
tp119
I1
s(I-5
I0
I0
tp120
I1
s(I1
I-3
I-2
tp121
I1
s(I3
I4
I2
tp122
I3
s(I4
I3
I1
tp123
I3
s(I3
I-1
I-21
tp124
I1
s(I3
I3
I4
tp125
I3
s(I0
I2
I-2
tp126
I3
s(I1
I2
I-2
tp127
I3
s(I-5
I3
I-2
tp128
I3
s(I0
I-3
I-1
tp129
I1
s(I3
I10
I-11
tp130
I1
s(I3
I-1
I-2
tp131
I1
s(I3
I-5
I-18
tp132
I2
s(I2
I1
I2
tp133
I1
s(I1
I0
I4
tp134
I1
s(I3
I8
I-16
tp135
I2
s(I0
I-1
I3
tp136
I1
s(I2
I-1
I1
tp137
I1
s(I-5
I2
I3
tp138
I2
s(I-1
I1
I-2
tp139
I2
s(I-1
I0
I1
tp140
I1
s(I1
I1
I3
tp141
I1
s(I3
I6
I-9
tp142
I2
s(I-4
I11
I-1
tp143
I1
s(I-1
I-2
I0
tp144
I1
s(I3
I-3
I-3
tp145
I1
s(I4
I4
I2
tp146
I3
s(I3
I1
I-12
tp147
I3
s(I-2
I7
I-1
tp148
I17
s(I4
I-2
I0
tp149
I4
s(I3
I11
I-7
tp150
I2
s(I4
I2
I2
tp151
I1
s(I3
I0
I0
tp152
I1
s(I-3
I3
I1
tp153
I2
s(I-2
I-1
I-1
tp154
I1
s(I1
I4
I2
tp155
I3
s(I3
I3
I-14
tp156
I3
s(I3
I-1
I-3
tp157
I1
s(I3
I-7
I-17
tp158
I2
s(I3
I-1
I-1
tp159
I1
s(I0
I2
I3
tp160
I2
s(I-7
I3
I2
tp161
I3
s(I-2
I3
I4
tp162
I3
s(I3
I3
I-4
tp163
I1
s(I3
I4
I-10
tp164
I3
s(I3
I-6
I-19
tp165
I2
s(I3
I-3
I-11
tp166
I2
s(I2
I0
I1
tp167
I1
s(I4
I-2
I-3
tp168
I10
s(I3
I1
I2
tp169
I1
s(I-1
I7
I1
tp170
I17
s(I-5
I3
I0
tp171
I3
s(I-4
I0
I1
tp172
I1
s(I3
I9
I-10
tp173
I2
s(I3
I-2
I-13
tp174
I2
s(I-5
I2
I-2
tp175
I2
s(I-2
I2
I3
tp176
I2
s(I0
I7
I0
tp177
I17
s(I-3
I3
I0
tp178
I3
s(I3
I2
I4
tp179
I2
s(I4
I1
I3
tp180
I1
s(I-3
I-1
I-1
tp181
I1
s(I-5
I1
I-2
tp182
I2
s(I1
I2
I-1
tp183
I3
s(I-2
I1
I1
tp184
I1
s(I0
I4
I0
tp185
I3
s(I-1
I-2
I-1
tp186
I1
s(I-4
I12
I1
tp187
I2
s(I1
I-1
I2
tp188
I1
s(I2
I3
I3
tp189
I3
s(I0
I1
I2
tp190
I1
s(I1
I0
I1
tp191
I1
s(I-5
I3
I-1
tp192
I3
s(I3
I-4
I-14
tp193
I1
s(I1
I-2
I0
tp194
I1
s(I2
I-3
I-2
tp195
I1
s(I-3
I0
I-2
tp196
I1
s(I3
I10
I-14
tp197
I2
s(I0
I8
I0
tp198
I17
s(I-5
I0
I1
tp199
I1
s(I-1
I-1
I-3
tp200
I1
s(I2
I4
I2
tp201
I3
s(I3
I9
I-16
tp202
I2
s(I-1
I13
I-2
tp203
I3
s(I4
I0
I4
tp204
I1
s(I2
I2
I0
tp205
I3
s(I0
I3
I1
tp206
I3
s(I1
I1
I-2
tp207
I2
s(I-2
I0
I4
tp208
I1
s(I-1
I0
I-2
tp209
I1
s(I3
I5
I-16
tp210
I3
s(I3
I-6
I-11
tp211
I2
s(I2
I1
I3
tp212
I1
s(I3
I8
I-15
tp213
I2
s(I0
I-2
I2
tp214
I1
s(I-5
I2
I0
tp215
I2
s(I-1
I8
I1
tp216
I17
s(I0
I2
I-1
tp217
I3
s(I1
I0
I-2
tp218
I1
s(I1
I-3
I-1
tp219
I1
s(I3
I6
I-12
tp220
I1
s(I3
I-4
I-21
tp221
I1
s(I-3
I0
I2
tp222
I1
s(I3
I-1
I1
tp223
I1
s(I3
I-6
I-22
tp224
I1
s(I-4
I2
I4
tp225
I2
s(I1
I0
I3
tp226
I1
s(I3
I-3
I0
tp227
I1
s(I-5
I1
I-1
tp228
I2
s(I0
I-1
I-1
tp229
I1
s(I2
I2
I-3
tp230
I3
s(I3
I3
I-11
tp231
I3
s(I3
I-7
I-18
tp232
I2
s(I-3
I12
I2
tp233
I2
s(I1
I1
I-1
tp234
I2
s(I0
I2
I2
tp235
I1
s(I4
I1
I4
tp236
I2
s(I-4
I3
I2
tp237
I2
s(I2
I0
I0
tp238
I1
s(I3
I1
I1
tp239
I1
s(I-5
I3
I3
tp240
I3
s(I3
I-5
I-15
tp241
I1
s(I1
I2
I3
tp242
I2
s(I3
I-1
I-16
tp243
I3
s(I-3
I1
I1
tp244
I1
s(I-1
I2
I-2
tp245
I3
s(I-2
I2
I2
tp246
I1
s(I0
I-1
I-2
tp247
I1
s(I2
I-3
I-1
tp248
I1
s(I-1
I4
I2
tp249
I3
s(I-4
I5
I2
tp250
I3
s(I3
I10
I-5
tp251
I2
s(I-1
I0
I-3
tp252
I1
s(I3
I3
I1
tp253
I3
s(I-3
I4
I1
tp254
I3
s(I1
I3
I4
tp255
I3
s(I-4
I12
I0
tp256
I2
s(I-2
I1
I4
tp257
I2
s(I-3
I13
I1
tp258
I3
s(I1
I0
I-3
tp259
I1
s(I2
I2
I3
tp260
I2
s(I0
I1
I3
tp261
I1
s(I4
I0
I3
tp262
I1
s(I-4
I2
I1
tp263
I2
s(I-2
I-1
I0
tp264
I1
s(I2
I3
I1
tp265
I3
s(I3
I10
I-13
tp266
I1
s(I-5
I0
I2
tp267
I1
s(I4
I-3
I-1
tp268
I6
s(I3
I2
I-2
tp269
I3
s(I0
I0
I4
tp270
I1
s(I0
I-2
I-1
tp271
I1
s(I0
I6
I0
tp272
I17
s(I3
I0
I-11
tp273
I3
s(I-3
I11
I2
tp274
I1
s(I-1
I-2
I2
tp275
I1
s(I1
I-3
I-3
tp276
I1
s(I-1
I14
I-2
tp277
I3
s(I3
I0
I1
tp278
I1
s(I4
I2
I4
tp279
I2
s(I-4
I0
I0
tp280
I1
s(I3
I5
I-9
tp281
I3
s(I3
I4
I-17
tp282
I3
s(I-3
I14
I0
tp283
I3
s(I-1
I3
I-1
tp284
I18
s(I2
I-2
I-2
tp285
I22
s(I-1
I5
I0
tp286
I3
s(I-2
I3
I1
tp287
I2
s(I-5
I2
I1
tp288
I2
s(I-1
I8
I0
tp289
I17
s(I-1
I1
I-3
tp290
I2
s(I-4
I1
I0
tp291
I2
s(I3
I6
I-11
tp292
I1
s(I-1
I6
I-1
tp293
I17
s(I-4
I1
I-2
tp294
I2
s(I-5
I11
I1
tp295
I1
s(I3
I3
I-3
tp296
I5
s(I4
I-1
I0
tp297
I4
s(I3
I11
I-5
tp298
I2
s(I4
I-2
I-2
tp299
I9
s(I-1
I7
I0
tp300
I17
s(I-4
I13
I0
tp301
I3
s(I2
I2
I2
tp302
I1
s(I3
I-7
I-19
tp303
I2
s(I-4
I3
I-2
tp304
I3
s(I-1
I2
I2
tp305
I1
s(I0
I0
I-1
tp306
I1
s(I3
I2
I2
tp307
I1
s(I-4
I3
I3
tp308
I3
s(I-1
I-1
I1
tp309
I1
s(I-4
I0
I-1
tp310
I1
s(I2
I-3
I0
tp311
I1
s(I-3
I0
I1
tp312
I1
s(I2
I0
I3
tp313
I1
s(I3
I1
I0
tp314
I2
s(I2
I-1
I-3
tp315
I1
s(I-5
I3
I2
tp316
I3
s(I-4
I-1
I1
tp317
I1
s(I-2
I4
I2
tp318
I3
s(I1
I2
I4
tp319
I2
s(I-3
I1
I0
tp320
I2
s(I3
I0
I-2
tp321
I1
s(I3
I-7
I-11
tp322
I2
s(I-2
I2
I1
tp323
I1
s(I-2
I-1
I2
tp324
I1
s(I3
I-4
I-12
tp325
I2
s(I-4
I2
I-1
tp326
I3
s(I-1
I3
I0
tp327
I16
s(I4
I-2
I-1
tp328
I4
s(I3
I4
I-8
tp329
I3
s(I1
I3
I3
tp330
I3
s(I-1
I-1
I-1
tp331
I1
s(I4
I3
I4
tp332
I3
s(I2
I3
I-5
tp333
I1
s(I3
I2
I-9
tp334
I3
s(I0
I3
I3
tp335
I3
s(I-3
I13
I0
tp336
I2
s(I1
I-1
I0
tp337
I1
s(I0
I1
I4
tp338
I2
s(I-1
I9
I0
tp339
I17
s(I4
I0
I2
tp340
I1
s(I-4
I2
I0
tp341
I3
s(I2
I3
I2
tp342
I2
s(I3
I10
I-16
tp343
I2
s(I-2
I0
I2
tp344
I1
s(I-5
I0
I3
tp345
I1
s(I3
I-6
I-13
tp346
I1
s(I-4
I3
I-1
tp347
I19
s(I3
I8
I-5
tp348
I2
s(I-3
I2
I1
tp349
I1
s(I0
I0
I3
tp350
I1
s(I-1
I6
I1
tp351
I17
s(I-3
I11
I1
tp352
I1
s(I2
I2
I1
tp353
I2
s(I-3
I1
I-2
tp354
I2
s(I3
I7
I-7
tp355
I1
s(I-5
I1
I4
tp356
I2
s(I3
I0
I-1
tp357
I1
s(I-1
I1
I4
tp358
I2
s(I2
I1
I1
tp359
I1
s(I3
I-2
I-2
tp360
I1
s(I3
I-2
I-1
tp361
I1
s(I-4
I1
I1
tp362
I1
s(I3
I6
I-14
tp363
I2
s(I0
I-2
I0
tp364
I1
s(I-3
I0
I0
tp365
I1
s(I-5
I11
I0
tp366
I1
s(I-1
I3
I4
tp367
I3
s(I3
I11
I-6
tp368
I2
s(I-1
I-2
I1
tp369
I1
s(I-2
I3
I3
tp370
I3
s(I-4
I13
I1
tp371
I3
s(I-2
I1
I-2
tp372
I2
s(I-3
I12
I0
tp373
I1
s(I0
I0
I-3
tp374
I1
s(I3
I2
I3
tp375
I2
s(I-2
I0
I-2
tp376
I1
s(I-5
I4
I1
tp377
I3
s(I-4
I3
I0
tp378
I3
s(I-2
I0
I-3
tp379
I1
s(I-2
I0
I-1
tp380
I1
s(I-2
I1
I2
tp381
I1
s(I-1
I-1
I0
tp382
I1
s(I3
I-5
I-13
tp383
I1
s(I4
I0
I-2
tp384
I4
s(I-1
I9
I-2
tp385
I3
s(I-3
I1
I3
tp386
I1
s(I-2
I2
I0
tp387
I2
s(I-2
I-2
I1
tp388
I1
s(I-1
I12
I-2
tp389
I3
s(I1
I3
I-3
tp390
I5
s(I3
I2
I0
tp391
I3
s(I0
I-2
I-2
tp392
I1
s(I1
I3
I2
tp393
I2
s(I3
I-2
I-17
tp394
I2
s(I0
I7
I-1
tp395
I17
s(I2
I-1
I0
tp396
I1
s(I3
I9
I-5
tp397
I2
s(I2
I4
I1
tp398
I21
s(I-4
I4
I3
tp399
I3
s(I1
I1
I2
tp400
I1
s(I4
I0
I1
tp401
I1
s(I-4
I2
I3
tp402
I2
s(I3
I7
I-16
tp403
I2
s(I-1
I2
I-1
tp404
I3
s(I2
I-3
I-3
tp405
I1
s(I-3
I0
I-1
tp406
I1
s(I1
I2
I2
tp407
I1
s(I2
I0
I-3
tp408
I1
s(I-5
I0
I4
tp409
I1
s(I3
I-5
I-22
tp410
I1
s(I-2
I2
I-1
tp411
I3
s(I3
I-3
I-2
tp412
I1
s(I3
I6
I-15
tp413
I2
s(I2
I-2
I-3
tp414
I1
s(I-3
I2
I2
tp415
I1
s(I0
I0
I2
tp416
I1
s(I-2
I-2
I0
tp417
I1
s(I3
I0
I-3
tp418
I1
s(I-4
I13
I-1
tp419
I3
s(I-3
I11
I0
tp420
I1
s(I3
I7
I-8
tp421
I2
s(I-5
I1
I3
tp422
I1
s(I0
I3
I4
tp423
I3
s(I-3
I1
I-1
tp424
I2
s(I1
I1
I4
tp425
I2
s(I4
I-1
I-2
tp426
I9
s(I3
I8
I-12
tp427
I1
s(I-3
I-1
I1
tp428
I1
s(I-4
I1
I-1
tp429
I2
s(I-4
I1
I2
tp430
I1
s(I3
I6
I-13
tp431
I1
s(I3
I-2
I1
tp432
I3
s(I-2
I11
I0
tp433
I3
s(I-2
I0
I1
tp434
I1
s(I-2
I3
I0
tp435
I3
s(I-3
I14
I-1
tp436
I3
s(I-1
I1
I3
tp437
I1
s(I3
I-2
I0
tp438
I1
s(I-1
I2
I3
tp439
I2
s(I3
I-7
I-21
tp440
I1
s(I-3
I12
I1
tp441
I2
s(I3
I6
I-5
tp442
I2
s(I-3
I2
I-2
tp443
I3
s(I3
I1
I-17
tp444
I3
s(I-3
I2
I0
tp445
I2
s(I-4
I3
I1
tp446
I3
s(I3
I4
I-14
tp447
I3
s(I5
I0
I2
tp448
I1
s(I3
I1
I-1
tp449
I2
s(I-2
I1
I3
tp450
I1
s(I4
I0
I-3
tp451
I4
s(I3
I9
I-14
tp452
I2
s(I-3
I1
I2
tp453
I1
s(I-1
I-2
I-2
tp454
I1
s(I2
I3
I4
tp455
I3
s(I3
I0
I-17
tp456
I3
s(I1
I3
I-4
tp457
I1
s(I-1
I0
I3
tp458
I1
s(I-1
I-1
I-2
tp459
I1
s(I3
I5
I-13
tp460
I3
s(I4
I3
I2
tp461
I2
s(I3
I-2
I-20
tp462
I1
s(I2
I-2
I-1
tp463
I22
s(I3
I9
I-6
tp464
I2
s(I3
I3
I3
tp465
I3
s(I-4
I4
I2
tp466
I3
s(I4
I0
I0
tp467
I1
s(I-4
I2
I2
tp468
I1
s(I-1
I11
I-2
tp469
I3
s(I3
I-1
I0
tp470
I1
s(I-2
I0
I0
tp471
I1
s(I-1
I3
I3
tp472
I3
s(I3
I-5
I-19
tp473
I2
s(I3
I-6
I-15
tp474
I1
s(I-1
I14
I-1
tp475
I3
s(I-3
I2
I3
tp476
I2
s(I0
I0
I1
tp477
I1
s(I0
I-1
I1
tp478
I1
s(I3
I-4
I-17
tp479
I2
s(I4
I-2
I1
tp480
I3
s(I-1
I-1
I3
tp481
I1
s(I3
I7
I-5
tp482
I2
s(I-5
I1
I2
tp483
I1
s(I2
I1
I-3
tp484
I2
s(I4
I2
I1
tp485
I2
s(I-3
I2
I-1
tp486
I3
s(I-5
I12
I0
tp487
I2
s(I-3
I-1
I2
tp488
I1
s(I3
I3
I-15
tp489
I3
s(I2
I-2
I1
tp490
I1
s(I-5
I2
I4
tp491
I3
s(I-2
I0
I3
tp492
I1
s(I-4
I1
I3
tp493
I1
s(I3
I6
I-16
tp494
I2
s(I-1
I-2
I-3
tp495
I1
s(I-5
I2
I-1
tp496
I2
s(I-1
I3
I1
tp497
I3
s(I-4
I1
I4
tp498
I2
s(I2
I0
I4
tp499
I1
s(I-2
I-1
I-3
tp500
I1
s(I1
I-2
I-3
tp501
I1
s(I-3
I3
I4
tp502
I3
s(I0
I7
I1
tp503
I17
s(I3
I-2
I-12
tp504
I2
s(I-4
I14
I-1
tp505
I3
s(I3
I6
I-8
tp506
I2
s(I3
I2
I1
tp507
I2
s(I1
I3
I1
tp508
I3
s(I-1
I1
I-1
tp509
I2
s(I4
I1
I0
tp510
I2
s(I5
I0
I3
tp511
I1
s(I4
I0
I-1
tp512
I4
s(I2
I1
I0
tp513
I2
s(I-1
I1
I0
tp514
I2
s(I-1
I2
I1
tp515
I2
s(I3
I-5
I-11
tp516
I2
s(I-4
I2
I-2
tp517
I2
s(I-4
I0
I4
tp518
I1
s(I0
I2
I4
tp519
I2
s(I3
I8
I-14
tp520
I2
s(I3
I-3
I-20
tp521
I1
s(I3
I-7
I-14
tp522
I1
s(I1
I0
I2
tp523
I1
s(I-3
I13
I-1
tp524
I3
s(I3
I-3
I-17
tp525
I2
s(I-2
I1
I-1
tp526
I2
s(I1
I3
I-5
tp527
I1
s(I1
I2
I1
tp528
I2
s(I4
I3
I3
tp529
I3
s(I-2
I2
I-2
tp530
I3
s(I-3
I2
I4
tp531
I2
s(I3
I4
I-15
tp532
I3
s(I-1
I2
I-3
tp533
I3
s(I3
I3
I2
tp534
I2
s(I3
I0
I-15
tp535
I3
s(I-4
I4
I1
tp536
I3
s(I-1
I7
I-1
tp537
I17
s(I4
I-1
I-1
tp538
I4
s(I-2
I6
I0
tp539
I17
s(I3
I1
I-2
tp540
I2
s(I0
I3
I2
tp541
I2
s(I3
I10
I-9
tp542
I2
s(I2
I2
I4
tp543
I2
s(I1
I-2
I-2
tp544
I1
s(I-1
I0
I-1
tp545
I1
s(I2
I1
I4
tp546
I2
s(I3
I10
I-8
tp547
I2
s(I0
I2
I-3
tp548
I3
s(I0
I0
I0
tp549
I1
s(I1
I1
I1
tp550
I1
s(I-2
I2
I4
tp551
I2
s(I-1
I-1
I2
tp552
I1
s(I0
I-2
I1
tp553
I1
s(I-5
I1
I1
tp554
I1
s(I-1
I1
I2
tp555
I1
s(I-3
I0
I3
tp556
I1
s(I3
I1
I-10
tp557
I3
s(I4
I2
I0
tp558
I3
s(I3
I8
I-7
tp559
I1
s(I-3
I3
I3
tp560
I3
s(I2
I-2
I0
tp561
I1
s(I-3
I0
I4
tp562
I1
ssb.