(i__main__
LoadStruct
p0
(dp1
S'playerpos'
p2
(ivec
Vec3
p3
(dp4
S'y'
p5
F4.831938799480956
sS'x'
p6
F4.360659776265843
sS'z'
p7
F-5.645497018919253
sbsS'playeraimyaw'
p8
F-0.5475000000005003
sS'playeraimpitch'
p9
F-38.15250000000257
sS'space'
p10
(dp11
(I3
I0
I3
tp12
I1
s(I-4
I11
I0
tp13
I1
s(I1
I1
I-3
tp14
I2
s(I-1
I8
I-1
tp15
I17
s(I1
I-2
I-2
tp16
I1
s(I-2
I-2
I1
tp17
I1
s(I0
I2
I1
tp18
I2
s(I-1
I3
I2
tp19
I2
s(I3
I-1
I-3
tp20
I1
s(I0
I-3
I0
tp21
I1
s(I3
I1
I4
tp22
I2
s(I1
I2
I0
tp23
I3
s(I-1
I1
I-2
tp24
I2
s(I-3
I1
I4
tp25
I2
s(I-1
I-2
I-1
tp26
I1
s(I3
I0
I0
tp27
I1
s(I-2
I4
I1
tp28
I3
s(I4
I1
I1
tp29
I2
s(I-1
I0
I0
tp30
I1
s(I-3
I4
I2
tp31
I3
s(I-5
I0
I-1
tp32
I1
s(I0
I4
I2
tp33
I3
s(I0
I0
I-2
tp34
I1
s(I-1
I1
I1
tp35
I1
s(I1
I0
I-1
tp36
I1
s(I0
I1
I-3
tp37
I2
s(I0
I1
I0
tp38
I2
s(I-2
I-1
I-1
tp39
I1
s(I1
I-1
I-3
tp40
I1
s(I-2
I2
I0
tp41
I2
s(I-4
I12
I-1
tp42
I2
s(I3
I4
I1
tp43
I20
s(I4
I-3
I-2
tp44
I6
s(I0
I-1
I-3
tp45
I1
s(I-2
I7
I0
tp46
I17
s(I1
I2
I-3
tp47
I3
s(I1
I-2
I1
tp48
I1
s(I3
I1
I-3
tp49
I2
s(I0
I3
I3
tp50
I3
s(I3
I2
I-3
tp51
I3
s(I-3
I-1
I0
tp52
I1
s(I-1
I0
I2
tp53
I1
s(I0
I-1
I0
tp54
I1
s(I-5
I2
I2
tp55
I2
s(I1
I1
I0
tp56
I2
s(I-3
I0
I4
tp57
I1
s(I0
I1
I-2
tp58
I2
s(I-5
I1
I0
tp59
I1
s(I3
I-3
I-1
tp60
I1
s(I4
I2
I3
tp61
I2
s(I-1
I0
I4
tp62
I1
s(I-3
I3
I2
tp63
I2
s(I3
I0
I4
tp64
I1
s(I-4
I11
I1
tp65
I1
s(I1
I-3
I0
tp66
I1
s(I-2
I6
I0
tp67
I17
s(I-1
I-1
I3
tp68
I1
s(I0
I2
I0
tp69
I3
s(I-2
I3
I3
tp70
I3
s(I-4
I3
I4
tp71
I3
s(I1
I-1
I-2
tp72
I1
s(I3
I1
I3
tp73
I1
s(I-5
I3
I1
tp74
I3
s(I-4
I0
I2
tp75
I1
s(I-2
I1
I0
tp76
I2
s(I-2
I7
I-1
tp77
I17
s(I-2
I7
I1
tp78
I17
s(I-6
I3
I2
tp79
I3
s(I-1
I2
I4
tp80
I2
s(I0
I2
I-2
tp81
I3
s(I-1
I4
I0
tp82
I16
s(I-2
I0
I-2
tp83
I1
s(I4
I-3
I0
tp84
I6
s(I4
I1
I2
tp85
I1
s(I-4
I0
I3
tp86
I1
s(I-3
I4
I3
tp87
I3
s(I-2
I8
I0
tp88
I17
s(I1
I-1
I1
tp89
I1
s(I3
I2
I-1
tp90
I3
s(I0
I1
I-1
tp91
I2
s(I3
I0
I2
tp92
I1
s(I0
I1
I1
tp93
I1
s(I1
I-2
I-1
tp94
I1
s(I0
I-2
I-3
tp95
I1
s(I4
I2
I1
tp96
I2
s(I1
I0
I0
tp97
I1
s(I-5
I0
I0
tp98
I1
s(I1
I-3
I-1
tp99
I1
s(I3
I4
I2
tp100
I3
s(I4
I3
I1
tp101
I3
s(I3
I3
I4
tp102
I3
s(I0
I-1
I2
tp103
I1
s(I1
I2
I-2
tp104
I3
s(I-5
I3
I-2
tp105
I3
s(I0
I-3
I-1
tp106
I1
s(I3
I0
I-3
tp107
I1
s(I3
I-1
I-2
tp108
I1
s(I2
I1
I2
tp109
I1
s(I1
I0
I4
tp110
I1
s(I0
I-1
I3
tp111
I1
s(I2
I-2
I1
tp112
I1
s(I-5
I2
I3
tp113
I2
s(I-2
I1
I-2
tp114
I2
s(I2
I0
I-3
tp115
I1
s(I1
I1
I3
tp116
I1
s(I-4
I11
I-1
tp117
I1
s(I2
I2
I0
tp118
I3
s(I3
I-3
I-3
tp119
I1
s(I4
I4
I2
tp120
I3
s(I4
I-2
I0
tp121
I4
s(I4
I2
I2
tp122
I1
s(I3
I-2
I-1
tp123
I1
s(I-3
I3
I1
tp124
I2
s(I-1
I-1
I-2
tp125
I1
s(I1
I4
I2
tp126
I3
s(I3
I-2
I-3
tp127
I1
s(I-3
I0
I-1
tp128
I1
s(I0
I2
I3
tp129
I2
s(I-7
I3
I2
tp130
I3
s(I-2
I3
I4
tp131
I3
s(I2
I0
I1
tp132
I1
s(I4
I-1
I-3
tp133
I9
s(I3
I1
I2
tp134
I1
s(I-1
I7
I1
tp135
I17
s(I-5
I3
I0
tp136
I3
s(I-4
I0
I1
tp137
I1
s(I-5
I2
I-2
tp138
I2
s(I-2
I2
I3
tp139
I2
s(I-1
I2
I1
tp140
I2
s(I-3
I3
I0
tp141
I3
s(I3
I2
I4
tp142
I2
s(I4
I1
I3
tp143
I1
s(I-3
I0
I0
tp144
I1
s(I-5
I1
I-2
tp145
I2
s(I1
I2
I-1
tp146
I3
s(I-2
I1
I1
tp147
I1
s(I-2
I-1
I-2
tp148
I1
s(I-4
I12
I1
tp149
I2
s(I1
I-1
I2
tp150
I1
s(I2
I3
I3
tp151
I3
s(I0
I1
I2
tp152
I1
s(I-1
I2
I0
tp153
I3
s(I1
I0
I1
tp154
I1
s(I-5
I3
I-1
tp155
I3
s(I1
I-1
I0
tp156
I1
s(I2
I-3
I-2
tp157
I1
s(I-2
I3
I1
tp158
I2
s(I0
I8
I0
tp159
I17
s(I-5
I0
I1
tp160
I1
s(I-1
I-1
I-3
tp161
I1
s(I2
I4
I2
tp162
I3
s(I4
I0
I4
tp163
I1
s(I-1
I-2
I0
tp164
I1
s(I0
I3
I1
tp165
I3
s(I1
I1
I-2
tp166
I2
s(I-2
I0
I4
tp167
I1
s(I-2
I0
I-1
tp168
I1
s(I2
I1
I3
tp169
I1
s(I0
I2
I-1
tp170
I3
s(I-5
I2
I0
tp171
I2
s(I-1
I8
I1
tp172
I17
s(I0
I-2
I2
tp173
I1
s(I1
I-2
I0
tp174
I1
s(I1
I1
I2
tp175
I1
s(I-3
I0
I2
tp176
I1
s(I3
I-1
I1
tp177
I1
s(I-4
I2
I4
tp178
I2
s(I1
I0
I3
tp179
I1
s(I3
I-3
I0
tp180
I1
s(I-5
I1
I-1
tp181
I2
s(I0
I-1
I-1
tp182
I1
s(I2
I2
I-3
tp183
I3
s(I-3
I12
I2
tp184
I2
s(I1
I1
I-1
tp185
I2
s(I0
I2
I2
tp186
I1
s(I4
I1
I4
tp187
I2
s(I-4
I3
I2
tp188
I2
s(I2
I0
I0
tp189
I1
s(I3
I1
I1
tp190
I1
s(I-5
I3
I3
tp191
I3
s(I1
I2
I3
tp192
I2
s(I-3
I1
I1
tp193
I1
s(I-1
I2
I-2
tp194
I3
s(I-2
I2
I2
tp195
I1
s(I0
I-1
I-2
tp196
I1
s(I2
I-3
I-1
tp197
I1
s(I-1
I4
I2
tp198
I3
s(I-4
I5
I2
tp199
I3
s(I-2
I0
I-3
tp200
I1
s(I3
I3
I1
tp201
I3
s(I-3
I4
I1
tp202
I3
s(I1
I3
I4
tp203
I3
s(I-4
I12
I0
tp204
I2
s(I-2
I1
I4
tp205
I2
s(I-3
I13
I1
tp206
I3
s(I1
I0
I-3
tp207
I1
s(I-2
I-1
I3
tp208
I1
s(I0
I1
I3
tp209
I1
s(I4
I0
I3
tp210
I1
s(I-4
I2
I1
tp211
I2
s(I-1
I-1
I0
tp212
I1
s(I2
I3
I1
tp213
I3
s(I-5
I0
I2
tp214
I1
s(I4
I-3
I-1
tp215
I6
s(I3
I2
I-2
tp216
I3
s(I0
I0
I4
tp217
I1
s(I0
I-2
I-1
tp218
I1
s(I0
I6
I0
tp219
I17
s(I-3
I11
I2
tp220
I1
s(I-1
I-2
I2
tp221
I1
s(I1
I-3
I-3
tp222
I1
s(I-3
I-1
I1
tp223
I1
s(I4
I2
I4
tp224
I2
s(I-4
I0
I0
tp225
I1
s(I-3
I14
I0
tp226
I3
s(I-1
I3
I-1
tp227
I18
s(I2
I-2
I-2
tp228
I22
s(I-1
I5
I0
tp229
I16
s(I-5
I2
I1
tp230
I2
s(I-1
I8
I0
tp231
I17
s(I-1
I1
I-3
tp232
I2
s(I-4
I1
I0
tp233
I2
s(I-1
I6
I-1
tp234
I17
s(I-4
I1
I-2
tp235
I2
s(I-5
I11
I1
tp236
I1
s(I4
I-1
I0
tp237
I4
s(I4
I-2
I-2
tp238
I9
s(I-1
I7
I0
tp239
I17
s(I-4
I13
I0
tp240
I3
s(I-1
I-1
I2
tp241
I1
s(I-4
I3
I-2
tp242
I3
s(I-1
I2
I2
tp243
I1
s(I0
I0
I-1
tp244
I1
s(I3
I2
I2
tp245
I1
s(I-4
I3
I3
tp246
I3
s(I-1
I-1
I1
tp247
I1
s(I-4
I0
I-1
tp248
I1
s(I2
I-3
I0
tp249
I1
s(I2
I2
I4
tp250
I2
s(I2
I0
I3
tp251
I1
s(I3
I1
I0
tp252
I2
s(I-5
I3
I2
tp253
I3
s(I-4
I-1
I1
tp254
I1
s(I-2
I4
I2
tp255
I3
s(I1
I2
I4
tp256
I2
s(I-3
I1
I0
tp257
I2
s(I3
I-2
I0
tp258
I1
s(I0
I7
I0
tp259
I17
s(I-2
I-1
I2
tp260
I1
s(I-4
I2
I-1
tp261
I3
s(I-1
I3
I0
tp262
I16
s(I4
I-1
I-2
tp263
I9
s(I1
I3
I3
tp264
I3
s(I-1
I-1
I-1
tp265
I1
s(I4
I3
I4
tp266
I3
s(I2
I-1
I-3
tp267
I1
s(I-2
I3
I2
tp268
I2
s(I-3
I13
I0
tp269
I2
s(I1
I0
I-2
tp270
I1
s(I0
I1
I4
tp271
I2
s(I-1
I9
I0
tp272
I17
s(I4
I0
I2
tp273
I1
s(I-4
I2
I0
tp274
I3
s(I2
I3
I2
tp275
I2
s(I-2
I0
I2
tp276
I1
s(I-5
I0
I3
tp277
I1
s(I-4
I3
I-1
tp278
I19
s(I-3
I2
I1
tp279
I1
s(I0
I0
I3
tp280
I1
s(I-3
I11
I1
tp281
I1
s(I-2
I-1
I1
tp282
I1
s(I3
I3
I2
tp283
I2
s(I-5
I1
I4
tp284
I2
s(I3
I0
I-2
tp285
I1
s(I-1
I1
I4
tp286
I2
s(I2
I1
I1
tp287
I1
s(I3
I-2
I-2
tp288
I1
s(I-3
I0
I-2
tp289
I1
s(I1
I1
I4
tp290
I2
s(I0
I-2
I0
tp291
I1
s(I3
I-1
I0
tp292
I1
s(I-5
I11
I0
tp293
I1
s(I-1
I3
I4
tp294
I3
s(I-1
I-2
I1
tp295
I1
s(I2
I1
I-3
tp296
I2
s(I-4
I13
I1
tp297
I3
s(I-1
I1
I-1
tp298
I2
s(I-3
I12
I0
tp299
I1
s(I0
I0
I-3
tp300
I1
s(I3
I2
I3
tp301
I2
s(I-1
I0
I-1
tp302
I1
s(I-5
I4
I1
tp303
I3
s(I-4
I3
I0
tp304
I3
s(I-1
I0
I-3
tp305
I1
s(I2
I0
I2
tp306
I1
s(I-2
I1
I2
tp307
I1
s(I-2
I-1
I0
tp308
I1
s(I-2
I11
I2
tp309
I1
s(I4
I0
I-2
tp310
I4
s(I-3
I1
I3
tp311
I1
s(I0
I7
I1
tp312
I17
s(I2
I2
I1
tp313
I2
s(I4
I3
I3
tp314
I3
s(I3
I2
I0
tp315
I3
s(I0
I-2
I-2
tp316
I1
s(I1
I3
I2
tp317
I2
s(I0
I7
I-1
tp318
I17
s(I2
I-1
I0
tp319
I1
s(I2
I4
I1
tp320
I21
s(I-4
I4
I3
tp321
I3
s(I1
I-3
I-2
tp322
I1
s(I4
I0
I1
tp323
I1
s(I-4
I2
I3
tp324
I2
s(I-1
I2
I-1
tp325
I3
s(I2
I-3
I-3
tp326
I1
s(I3
I-1
I-1
tp327
I1
s(I1
I2
I2
tp328
I1
s(I-2
I0
I1
tp329
I1
s(I-5
I0
I4
tp330
I1
s(I-2
I2
I-1
tp331
I3
s(I3
I-3
I-2
tp332
I1
s(I2
I-2
I-3
tp333
I1
s(I-3
I2
I2
tp334
I1
s(I0
I0
I2
tp335
I1
s(I-2
I-2
I0
tp336
I1
s(I-4
I13
I-1
tp337
I3
s(I-3
I11
I0
tp338
I1
s(I-5
I1
I3
tp339
I1
s(I0
I3
I4
tp340
I3
s(I-3
I1
I-1
tp341
I2
s(I-4
I1
I1
tp342
I1
s(I4
I-2
I-1
tp343
I4
s(I3
I0
I1
tp344
I1
s(I-4
I1
I-1
tp345
I2
s(I-4
I1
I2
tp346
I1
s(I-1
I2
I3
tp347
I2
s(I-3
I0
I1
tp348
I1
s(I-1
I0
I1
tp349
I1
s(I-2
I3
I0
tp350
I3
s(I-1
I1
I3
tp351
I1
s(I3
I0
I-1
tp352
I1
s(I-3
I12
I1
tp353
I2
s(I-3
I2
I-2
tp354
I3
s(I-3
I2
I0
tp355
I2
s(I-4
I3
I1
tp356
I3
s(I5
I0
I2
tp357
I1
s(I3
I1
I-1
tp358
I2
s(I-2
I1
I3
tp359
I1
s(I4
I0
I-3
tp360
I4
s(I-3
I1
I2
tp361
I1
s(I-1
I-2
I-2
tp362
I1
s(I2
I3
I4
tp363
I3
s(I-2
I0
I3
tp364
I1
s(I1
I3
I1
tp365
I3
s(I4
I3
I2
tp366
I2
s(I-3
I13
I2
tp367
I3
s(I2
I-2
I-1
tp368
I22
s(I3
I3
I3
tp369
I3
s(I-4
I4
I2
tp370
I3
s(I4
I0
I0
tp371
I1
s(I-4
I2
I2
tp372
I1
s(I-3
I-1
I-1
tp373
I1
s(I-2
I0
I0
tp374
I1
s(I-3
I2
I3
tp375
I2
s(I0
I0
I1
tp376
I1
s(I0
I-1
I1
tp377
I1
s(I2
I2
I3
tp378
I2
s(I-5
I1
I2
tp379
I1
s(I-1
I3
I3
tp380
I3
s(I4
I-2
I-3
tp381
I10
s(I-3
I-1
I2
tp382
I1
s(I-3
I2
I-1
tp383
I3
s(I-5
I12
I0
tp384
I2
s(I-1
I6
I1
tp385
I17
s(I2
I-1
I1
tp386
I1
s(I-5
I2
I4
tp387
I3
s(I-4
I1
I3
tp388
I1
s(I-1
I-2
I-3
tp389
I1
s(I-5
I2
I-1
tp390
I2
s(I-1
I3
I1
tp391
I3
s(I-4
I1
I4
tp392
I2
s(I2
I0
I4
tp393
I1
s(I-2
I-1
I-3
tp394
I1
s(I1
I-2
I-3
tp395
I1
s(I-3
I3
I4
tp396
I3
s(I3
I2
I1
tp397
I2
s(I4
I1
I0
tp398
I2
s(I5
I0
I3
tp399
I1
s(I4
I0
I-1
tp400
I4
s(I2
I1
I0
tp401
I2
s(I-1
I1
I0
tp402
I2
s(I-2
I2
I1
tp403
I1
s(I-4
I2
I-2
tp404
I2
s(I-4
I0
I4
tp405
I1
s(I0
I2
I4
tp406
I2
s(I1
I0
I2
tp407
I1
s(I-2
I1
I-1
tp408
I2
s(I1
I2
I1
tp409
I2
s(I4
I-3
I-3
tp410
I5
s(I-2
I2
I-2
tp411
I3
s(I-3
I2
I4
tp412
I2
s(I-1
I2
I-3
tp413
I3
s(I-3
I1
I-2
tp414
I2
s(I-4
I4
I1
tp415
I3
s(I-1
I7
I-1
tp416
I17
s(I4
I-1
I-1
tp417
I4
s(I-1
I6
I0
tp418
I16
s(I3
I1
I-2
tp419
I2
s(I0
I3
I2
tp420
I2
s(I-1
I0
I3
tp421
I1
s(I1
I-1
I-1
tp422
I1
s(I-1
I0
I-2
tp423
I1
s(I2
I1
I4
tp424
I2
s(I0
I2
I-3
tp425
I3
s(I0
I0
I0
tp426
I1
s(I1
I1
I1
tp427
I1
s(I-2
I2
I4
tp428
I2
s(I2
I2
I2
tp429
I1
s(I0
I-2
I1
tp430
I1
s(I-5
I1
I1
tp431
I1
s(I-1
I1
I2
tp432
I1
s(I-3
I0
I3
tp433
I1
s(I4
I2
I0
tp434
I3
s(I-3
I3
I3
tp435
I3
s(I2
I-2
I0
tp436
I1
ssb.